Archive member included because of file (symbol)

c:/program files (x86)/atollic/truestudio for arm pro 3.2.0/armtools/bin/../lib/gcc/arm-atollic-eabi/4.6.2/../../../../arm-atollic-eabi/lib/thumb/softfp/armv7e-m/fpv4-sp-d16\libc.a(lib_a-init.o)
                              BSP\cstartup.o (__libc_init_array)
c:/program files (x86)/atollic/truestudio for arm pro 3.2.0/armtools/bin/../lib/gcc/arm-atollic-eabi/4.6.2/../../../../arm-atollic-eabi/lib/thumb/softfp/armv7e-m/fpv4-sp-d16\libc.a(lib_a-vsnprintf.o)
                              BSP\bsp_ser.o (vsnprintf)
c:/program files (x86)/atollic/truestudio for arm pro 3.2.0/armtools/bin/../lib/gcc/arm-atollic-eabi/4.6.2/../../../../arm-atollic-eabi/lib/thumb/softfp/armv7e-m/fpv4-sp-d16\libc.a(lib_a-impure.o)
                              c:/program files (x86)/atollic/truestudio for arm pro 3.2.0/armtools/bin/../lib/gcc/arm-atollic-eabi/4.6.2/../../../../arm-atollic-eabi/lib/thumb/softfp/armv7e-m/fpv4-sp-d16\libc.a(lib_a-vsnprintf.o) (_impure_ptr)
c:/program files (x86)/atollic/truestudio for arm pro 3.2.0/armtools/bin/../lib/gcc/arm-atollic-eabi/4.6.2/../../../../arm-atollic-eabi/lib/thumb/softfp/armv7e-m/fpv4-sp-d16\libc.a(lib_a-svfprintf.o)
                              c:/program files (x86)/atollic/truestudio for arm pro 3.2.0/armtools/bin/../lib/gcc/arm-atollic-eabi/4.6.2/../../../../arm-atollic-eabi/lib/thumb/softfp/armv7e-m/fpv4-sp-d16\libc.a(lib_a-vsnprintf.o) (_svfprintf_r)
c:/program files (x86)/atollic/truestudio for arm pro 3.2.0/armtools/bin/../lib/gcc/arm-atollic-eabi/4.6.2/../../../../arm-atollic-eabi/lib/thumb/softfp/armv7e-m/fpv4-sp-d16\libc.a(lib_a-dtoa.o)
                              c:/program files (x86)/atollic/truestudio for arm pro 3.2.0/armtools/bin/../lib/gcc/arm-atollic-eabi/4.6.2/../../../../arm-atollic-eabi/lib/thumb/softfp/armv7e-m/fpv4-sp-d16\libc.a(lib_a-svfprintf.o) (_dtoa_r)
c:/program files (x86)/atollic/truestudio for arm pro 3.2.0/armtools/bin/../lib/gcc/arm-atollic-eabi/4.6.2/../../../../arm-atollic-eabi/lib/thumb/softfp/armv7e-m/fpv4-sp-d16\libc.a(lib_a-locale.o)
                              c:/program files (x86)/atollic/truestudio for arm pro 3.2.0/armtools/bin/../lib/gcc/arm-atollic-eabi/4.6.2/../../../../arm-atollic-eabi/lib/thumb/softfp/armv7e-m/fpv4-sp-d16\libc.a(lib_a-svfprintf.o) (_localeconv_r)
c:/program files (x86)/atollic/truestudio for arm pro 3.2.0/armtools/bin/../lib/gcc/arm-atollic-eabi/4.6.2/../../../../arm-atollic-eabi/lib/thumb/softfp/armv7e-m/fpv4-sp-d16\libc.a(lib_a-malloc.o)
                              c:/program files (x86)/atollic/truestudio for arm pro 3.2.0/armtools/bin/../lib/gcc/arm-atollic-eabi/4.6.2/../../../../arm-atollic-eabi/lib/thumb/softfp/armv7e-m/fpv4-sp-d16\libc.a(lib_a-dtoa.o) (malloc)
c:/program files (x86)/atollic/truestudio for arm pro 3.2.0/armtools/bin/../lib/gcc/arm-atollic-eabi/4.6.2/../../../../arm-atollic-eabi/lib/thumb/softfp/armv7e-m/fpv4-sp-d16\libc.a(lib_a-mallocr.o)
                              c:/program files (x86)/atollic/truestudio for arm pro 3.2.0/armtools/bin/../lib/gcc/arm-atollic-eabi/4.6.2/../../../../arm-atollic-eabi/lib/thumb/softfp/armv7e-m/fpv4-sp-d16\libc.a(lib_a-svfprintf.o) (_malloc_r)
c:/program files (x86)/atollic/truestudio for arm pro 3.2.0/armtools/bin/../lib/gcc/arm-atollic-eabi/4.6.2/../../../../arm-atollic-eabi/lib/thumb/softfp/armv7e-m/fpv4-sp-d16\libc.a(lib_a-memchr.o)
                              c:/program files (x86)/atollic/truestudio for arm pro 3.2.0/armtools/bin/../lib/gcc/arm-atollic-eabi/4.6.2/../../../../arm-atollic-eabi/lib/thumb/softfp/armv7e-m/fpv4-sp-d16\libc.a(lib_a-svfprintf.o) (memchr)
c:/program files (x86)/atollic/truestudio for arm pro 3.2.0/armtools/bin/../lib/gcc/arm-atollic-eabi/4.6.2/../../../../arm-atollic-eabi/lib/thumb/softfp/armv7e-m/fpv4-sp-d16\libc.a(lib_a-memcpy.o)
                              c:/program files (x86)/atollic/truestudio for arm pro 3.2.0/armtools/bin/../lib/gcc/arm-atollic-eabi/4.6.2/../../../../arm-atollic-eabi/lib/thumb/softfp/armv7e-m/fpv4-sp-d16\libc.a(lib_a-dtoa.o) (memcpy)
c:/program files (x86)/atollic/truestudio for arm pro 3.2.0/armtools/bin/../lib/gcc/arm-atollic-eabi/4.6.2/../../../../arm-atollic-eabi/lib/thumb/softfp/armv7e-m/fpv4-sp-d16\libc.a(lib_a-mlock.o)
                              c:/program files (x86)/atollic/truestudio for arm pro 3.2.0/armtools/bin/../lib/gcc/arm-atollic-eabi/4.6.2/../../../../arm-atollic-eabi/lib/thumb/softfp/armv7e-m/fpv4-sp-d16\libc.a(lib_a-mallocr.o) (__malloc_lock)
c:/program files (x86)/atollic/truestudio for arm pro 3.2.0/armtools/bin/../lib/gcc/arm-atollic-eabi/4.6.2/../../../../arm-atollic-eabi/lib/thumb/softfp/armv7e-m/fpv4-sp-d16\libc.a(lib_a-mprec.o)
                              c:/program files (x86)/atollic/truestudio for arm pro 3.2.0/armtools/bin/../lib/gcc/arm-atollic-eabi/4.6.2/../../../../arm-atollic-eabi/lib/thumb/softfp/armv7e-m/fpv4-sp-d16\libc.a(lib_a-dtoa.o) (_Balloc)
c:/program files (x86)/atollic/truestudio for arm pro 3.2.0/armtools/bin/../lib/gcc/arm-atollic-eabi/4.6.2/../../../../arm-atollic-eabi/lib/thumb/softfp/armv7e-m/fpv4-sp-d16\libc.a(lib_a-s_fpclassify.o)
                              c:/program files (x86)/atollic/truestudio for arm pro 3.2.0/armtools/bin/../lib/gcc/arm-atollic-eabi/4.6.2/../../../../arm-atollic-eabi/lib/thumb/softfp/armv7e-m/fpv4-sp-d16\libc.a(lib_a-svfprintf.o) (__fpclassifyd)
c:/program files (x86)/atollic/truestudio for arm pro 3.2.0/armtools/bin/../lib/gcc/arm-atollic-eabi/4.6.2/../../../../arm-atollic-eabi/lib/thumb/softfp/armv7e-m/fpv4-sp-d16\libc.a(lib_a-sbrkr.o)
                              c:/program files (x86)/atollic/truestudio for arm pro 3.2.0/armtools/bin/../lib/gcc/arm-atollic-eabi/4.6.2/../../../../arm-atollic-eabi/lib/thumb/softfp/armv7e-m/fpv4-sp-d16\libc.a(lib_a-mallocr.o) (_sbrk_r)
c:/program files (x86)/atollic/truestudio for arm pro 3.2.0/armtools/bin/../lib/gcc/arm-atollic-eabi/4.6.2/../../../../arm-atollic-eabi/lib/thumb/softfp/armv7e-m/fpv4-sp-d16\libc.a(lib_a-strcmp.o)
                              c:/program files (x86)/atollic/truestudio for arm pro 3.2.0/armtools/bin/../lib/gcc/arm-atollic-eabi/4.6.2/../../../../arm-atollic-eabi/lib/thumb/softfp/armv7e-m/fpv4-sp-d16\libc.a(lib_a-locale.o) (strcmp)
c:/program files (x86)/atollic/truestudio for arm pro 3.2.0/armtools/bin/../lib/gcc/arm-atollic-eabi/4.6.2/../../../../arm-atollic-eabi/lib/thumb/softfp/armv7e-m/fpv4-sp-d16\libc.a(lib_a-strlen.o)
                              c:/program files (x86)/atollic/truestudio for arm pro 3.2.0/armtools/bin/../lib/gcc/arm-atollic-eabi/4.6.2/../../../../arm-atollic-eabi/lib/thumb/softfp/armv7e-m/fpv4-sp-d16\libc.a(lib_a-svfprintf.o) (strlen)
c:/program files (x86)/atollic/truestudio for arm pro 3.2.0/armtools/bin/../lib/gcc/arm-atollic-eabi/4.6.2/../../../../arm-atollic-eabi/lib/thumb/softfp/armv7e-m/fpv4-sp-d16\libc.a(lib_a-svfiprintf.o)
                              c:/program files (x86)/atollic/truestudio for arm pro 3.2.0/armtools/bin/../lib/gcc/arm-atollic-eabi/4.6.2/../../../../arm-atollic-eabi/lib/thumb/softfp/armv7e-m/fpv4-sp-d16\libc.a(lib_a-svfprintf.o) (__ssprint_r)
c:/program files (x86)/atollic/truestudio for arm pro 3.2.0/armtools/bin/../lib/gcc/arm-atollic-eabi/4.6.2/../../../../arm-atollic-eabi/lib/thumb/softfp/armv7e-m/fpv4-sp-d16\libc.a(lib_a-syscalls.o)
                              c:/program files (x86)/atollic/truestudio for arm pro 3.2.0/armtools/bin/../lib/gcc/arm-atollic-eabi/4.6.2/../../../../arm-atollic-eabi/lib/thumb/softfp/armv7e-m/fpv4-sp-d16\libc.a(lib_a-sbrkr.o) (_sbrk)
c:/program files (x86)/atollic/truestudio for arm pro 3.2.0/armtools/bin/../lib/gcc/arm-atollic-eabi/4.6.2/../../../../arm-atollic-eabi/lib/thumb/softfp/armv7e-m/fpv4-sp-d16\libc.a(lib_a-callocr.o)
                              c:/program files (x86)/atollic/truestudio for arm pro 3.2.0/armtools/bin/../lib/gcc/arm-atollic-eabi/4.6.2/../../../../arm-atollic-eabi/lib/thumb/softfp/armv7e-m/fpv4-sp-d16\libc.a(lib_a-mprec.o) (_calloc_r)
c:/program files (x86)/atollic/truestudio for arm pro 3.2.0/armtools/bin/../lib/gcc/arm-atollic-eabi/4.6.2/../../../../arm-atollic-eabi/lib/thumb/softfp/armv7e-m/fpv4-sp-d16\libc.a(lib_a-freer.o)
                              c:/program files (x86)/atollic/truestudio for arm pro 3.2.0/armtools/bin/../lib/gcc/arm-atollic-eabi/4.6.2/../../../../arm-atollic-eabi/lib/thumb/softfp/armv7e-m/fpv4-sp-d16\libc.a(lib_a-malloc.o) (_free_r)
c:/program files (x86)/atollic/truestudio for arm pro 3.2.0/armtools/bin/../lib/gcc/arm-atollic-eabi/4.6.2/../../../../arm-atollic-eabi/lib/thumb/softfp/armv7e-m/fpv4-sp-d16\libc.a(lib_a-memmove.o)
                              c:/program files (x86)/atollic/truestudio for arm pro 3.2.0/armtools/bin/../lib/gcc/arm-atollic-eabi/4.6.2/../../../../arm-atollic-eabi/lib/thumb/softfp/armv7e-m/fpv4-sp-d16\libc.a(lib_a-svfiprintf.o) (memmove)
c:/program files (x86)/atollic/truestudio for arm pro 3.2.0/armtools/bin/../lib/gcc/arm-atollic-eabi/4.6.2/../../../../arm-atollic-eabi/lib/thumb/softfp/armv7e-m/fpv4-sp-d16\libc.a(lib_a-memset.o)
                              c:/program files (x86)/atollic/truestudio for arm pro 3.2.0/armtools/bin/../lib/gcc/arm-atollic-eabi/4.6.2/../../../../arm-atollic-eabi/lib/thumb/softfp/armv7e-m/fpv4-sp-d16\libc.a(lib_a-callocr.o) (memset)
c:/program files (x86)/atollic/truestudio for arm pro 3.2.0/armtools/bin/../lib/gcc/arm-atollic-eabi/4.6.2/../../../../arm-atollic-eabi/lib/thumb/softfp/armv7e-m/fpv4-sp-d16\libc.a(lib_a-reallocr.o)
                              c:/program files (x86)/atollic/truestudio for arm pro 3.2.0/armtools/bin/../lib/gcc/arm-atollic-eabi/4.6.2/../../../../arm-atollic-eabi/lib/thumb/softfp/armv7e-m/fpv4-sp-d16\libc.a(lib_a-svfiprintf.o) (_realloc_r)
c:/program files (x86)/atollic/truestudio for arm pro 3.2.0/armtools/bin/../lib/gcc/arm-atollic-eabi/4.6.2/../../../../arm-atollic-eabi/lib/thumb/softfp/armv7e-m/fpv4-sp-d16\libc.a(lib_a-reent.o)
                              c:/program files (x86)/atollic/truestudio for arm pro 3.2.0/armtools/bin/../lib/gcc/arm-atollic-eabi/4.6.2/../../../../arm-atollic-eabi/lib/thumb/softfp/armv7e-m/fpv4-sp-d16\libc.a(lib_a-sbrkr.o) (errno)
c:/program files (x86)/atollic/truestudio for arm pro 3.2.0/armtools/bin/../lib/gcc/arm-atollic-eabi/4.6.2/thumb/softfp/armv7e-m/fpv4-sp-d16\libgcc.a(_arm_addsubdf3.o)
                              c:/program files (x86)/atollic/truestudio for arm pro 3.2.0/armtools/bin/../lib/gcc/arm-atollic-eabi/4.6.2/../../../../arm-atollic-eabi/lib/thumb/softfp/armv7e-m/fpv4-sp-d16\libc.a(lib_a-dtoa.o) (__aeabi_dsub)
c:/program files (x86)/atollic/truestudio for arm pro 3.2.0/armtools/bin/../lib/gcc/arm-atollic-eabi/4.6.2/thumb/softfp/armv7e-m/fpv4-sp-d16\libgcc.a(_arm_muldivdf3.o)
                              c:/program files (x86)/atollic/truestudio for arm pro 3.2.0/armtools/bin/../lib/gcc/arm-atollic-eabi/4.6.2/../../../../arm-atollic-eabi/lib/thumb/softfp/armv7e-m/fpv4-sp-d16\libc.a(lib_a-dtoa.o) (__aeabi_dmul)
c:/program files (x86)/atollic/truestudio for arm pro 3.2.0/armtools/bin/../lib/gcc/arm-atollic-eabi/4.6.2/thumb/softfp/armv7e-m/fpv4-sp-d16\libgcc.a(_arm_cmpdf2.o)
                              c:/program files (x86)/atollic/truestudio for arm pro 3.2.0/armtools/bin/../lib/gcc/arm-atollic-eabi/4.6.2/../../../../arm-atollic-eabi/lib/thumb/softfp/armv7e-m/fpv4-sp-d16\libc.a(lib_a-svfprintf.o) (__aeabi_dcmpeq)
c:/program files (x86)/atollic/truestudio for arm pro 3.2.0/armtools/bin/../lib/gcc/arm-atollic-eabi/4.6.2/thumb/softfp/armv7e-m/fpv4-sp-d16\libgcc.a(_arm_fixdfsi.o)
                              c:/program files (x86)/atollic/truestudio for arm pro 3.2.0/armtools/bin/../lib/gcc/arm-atollic-eabi/4.6.2/../../../../arm-atollic-eabi/lib/thumb/softfp/armv7e-m/fpv4-sp-d16\libc.a(lib_a-dtoa.o) (__aeabi_d2iz)
c:/program files (x86)/atollic/truestudio for arm pro 3.2.0/armtools/bin/../lib/gcc/arm-atollic-eabi/4.6.2/thumb/softfp/armv7e-m/fpv4-sp-d16\libgcc.a(_aeabi_uldivmod.o)
                              c:/program files (x86)/atollic/truestudio for arm pro 3.2.0/armtools/bin/../lib/gcc/arm-atollic-eabi/4.6.2/../../../../arm-atollic-eabi/lib/thumb/softfp/armv7e-m/fpv4-sp-d16\libc.a(lib_a-svfprintf.o) (__aeabi_uldivmod)
c:/program files (x86)/atollic/truestudio for arm pro 3.2.0/armtools/bin/../lib/gcc/arm-atollic-eabi/4.6.2/thumb/softfp/armv7e-m/fpv4-sp-d16\libgcc.a(bpabi.o)
                              c:/program files (x86)/atollic/truestudio for arm pro 3.2.0/armtools/bin/../lib/gcc/arm-atollic-eabi/4.6.2/thumb/softfp/armv7e-m/fpv4-sp-d16\libgcc.a(_aeabi_uldivmod.o) (__gnu_uldivmod_helper)
c:/program files (x86)/atollic/truestudio for arm pro 3.2.0/armtools/bin/../lib/gcc/arm-atollic-eabi/4.6.2/thumb/softfp/armv7e-m/fpv4-sp-d16\libgcc.a(unwind-arm.o)
                              c:/program files (x86)/atollic/truestudio for arm pro 3.2.0/armtools/bin/../lib/gcc/arm-atollic-eabi/4.6.2/thumb/softfp/armv7e-m/fpv4-sp-d16\libgcc.a(bpabi.o) (__aeabi_unwind_cpp_pr0)
c:/program files (x86)/atollic/truestudio for arm pro 3.2.0/armtools/bin/../lib/gcc/arm-atollic-eabi/4.6.2/thumb/softfp/armv7e-m/fpv4-sp-d16\libgcc.a(libunwind.o)
                              c:/program files (x86)/atollic/truestudio for arm pro 3.2.0/armtools/bin/../lib/gcc/arm-atollic-eabi/4.6.2/thumb/softfp/armv7e-m/fpv4-sp-d16\libgcc.a(unwind-arm.o) (restore_core_regs)
c:/program files (x86)/atollic/truestudio for arm pro 3.2.0/armtools/bin/../lib/gcc/arm-atollic-eabi/4.6.2/thumb/softfp/armv7e-m/fpv4-sp-d16\libgcc.a(pr-support.o)
                              c:/program files (x86)/atollic/truestudio for arm pro 3.2.0/armtools/bin/../lib/gcc/arm-atollic-eabi/4.6.2/thumb/softfp/armv7e-m/fpv4-sp-d16\libgcc.a(unwind-arm.o) (__gnu_unwind_execute)
c:/program files (x86)/atollic/truestudio for arm pro 3.2.0/armtools/bin/../lib/gcc/arm-atollic-eabi/4.6.2/thumb/softfp/armv7e-m/fpv4-sp-d16\libgcc.a(_dvmd_tls.o)
                              c:/program files (x86)/atollic/truestudio for arm pro 3.2.0/armtools/bin/../lib/gcc/arm-atollic-eabi/4.6.2/thumb/softfp/armv7e-m/fpv4-sp-d16\libgcc.a(_aeabi_uldivmod.o) (__aeabi_ldiv0)
c:/program files (x86)/atollic/truestudio for arm pro 3.2.0/armtools/bin/../lib/gcc/arm-atollic-eabi/4.6.2/thumb/softfp/armv7e-m/fpv4-sp-d16\libgcc.a(_divdi3.o)
                              c:/program files (x86)/atollic/truestudio for arm pro 3.2.0/armtools/bin/../lib/gcc/arm-atollic-eabi/4.6.2/thumb/softfp/armv7e-m/fpv4-sp-d16\libgcc.a(bpabi.o) (__divdi3)
c:/program files (x86)/atollic/truestudio for arm pro 3.2.0/armtools/bin/../lib/gcc/arm-atollic-eabi/4.6.2/thumb/softfp/armv7e-m/fpv4-sp-d16\libgcc.a(_udivdi3.o)
                              c:/program files (x86)/atollic/truestudio for arm pro 3.2.0/armtools/bin/../lib/gcc/arm-atollic-eabi/4.6.2/thumb/softfp/armv7e-m/fpv4-sp-d16\libgcc.a(bpabi.o) (__udivdi3)
c:/program files (x86)/atollic/truestudio for arm pro 3.2.0/armtools/bin/../lib/gcc/arm-atollic-eabi/4.6.2/../../../../arm-atollic-eabi/lib/thumb/softfp/armv7e-m/fpv4-sp-d16\libc.a(lib_a-abort.o)
                              c:/program files (x86)/atollic/truestudio for arm pro 3.2.0/armtools/bin/../lib/gcc/arm-atollic-eabi/4.6.2/thumb/softfp/armv7e-m/fpv4-sp-d16\libgcc.a(unwind-arm.o) (abort)
c:/program files (x86)/atollic/truestudio for arm pro 3.2.0/armtools/bin/../lib/gcc/arm-atollic-eabi/4.6.2/../../../../arm-atollic-eabi/lib/thumb/softfp/armv7e-m/fpv4-sp-d16\libc.a(lib_a-signal.o)
                              c:/program files (x86)/atollic/truestudio for arm pro 3.2.0/armtools/bin/../lib/gcc/arm-atollic-eabi/4.6.2/../../../../arm-atollic-eabi/lib/thumb/softfp/armv7e-m/fpv4-sp-d16\libc.a(lib_a-abort.o) (raise)
c:/program files (x86)/atollic/truestudio for arm pro 3.2.0/armtools/bin/../lib/gcc/arm-atollic-eabi/4.6.2/../../../../arm-atollic-eabi/lib/thumb/softfp/armv7e-m/fpv4-sp-d16\libc.a(lib_a-signalr.o)
                              c:/program files (x86)/atollic/truestudio for arm pro 3.2.0/armtools/bin/../lib/gcc/arm-atollic-eabi/4.6.2/../../../../arm-atollic-eabi/lib/thumb/softfp/armv7e-m/fpv4-sp-d16\libc.a(lib_a-signal.o) (_kill_r)

Allocating common symbols
Common symbol       size              file

OSTmrFreeList       0x4               uCOS-II\Source\os_core.o
OSTmrWheelTbl       0x40              uCOS-II\Source\os_core.o
OSLockNesting       0x1               uCOS-II\Source\os_core.o
OSTmrSemSignal      0x4               uCOS-II\Source\os_core.o
OSTaskRegNextAvailID
                    0x1               uCOS-II\Source\os_core.o
OSRunning           0x1               uCOS-II\Source\os_core.o
OSIdleCtr           0x4               uCOS-II\Source\os_core.o
OSTmrUsed           0x2               uCOS-II\Source\os_core.o
OSPrioHighRdy       0x1               uCOS-II\Source\os_core.o
errno               0x4               c:/program files (x86)/atollic/truestudio for arm pro 3.2.0/armtools/bin/../lib/gcc/arm-atollic-eabi/4.6.2/../../../../arm-atollic-eabi/lib/thumb/softfp/armv7e-m/fpv4-sp-d16\libc.a(lib_a-reent.o)
OSFlagTbl           0x50              uCOS-II\Source\os_core.o
OSTmrTbl            0x280             uCOS-II\Source\os_core.o
OSPrioCur           0x1               uCOS-II\Source\os_core.o
Math_RandSeedCur    0x4               uC-LIB\lib_math.o
OSTCBList           0x4               uCOS-II\Source\os_core.o
OSTickStepState     0x1               uCOS-II\Source\os_core.o
OSMemTbl            0x78              uCOS-II\Source\os_core.o
OSTaskStatStk       0x200             uCOS-II\Source\os_core.o
OSCtxSwCtr          0x4               uCOS-II\Source\os_core.o
CPU_TS_TmrFreq_Hz   0x4               uC-CPU\cpu_core.o
OSTmrFree           0x2               uCOS-II\Source\os_core.o
OSIdleCtrMax        0x4               uCOS-II\Source\os_core.o
Mem_PoolHeap        0x48              uC-LIB\lib_mem.o
OSTCBFreeList       0x4               uCOS-II\Source\os_core.o
OS_CPU_ExceptStkBase
                    0x4               uCOS-II\Ports\ARM-Cortex-M3\Generic\GNU\os_cpu_c.o
OSCPUUsage          0x1               uCOS-II\Source\os_core.o
OSTaskCtr           0x1               uCOS-II\Source\os_core.o
OSMemFreeList       0x4               uCOS-II\Source\os_core.o
OSQTbl              0x60              uCOS-II\Source\os_core.o
OSTCBHighRdy        0x4               uCOS-II\Source\os_core.o
OSQFreeList         0x4               uCOS-II\Source\os_core.o
Mem_Heap            0x2400            uC-LIB\lib_mem.o
OSRdyGrp            0x1               uCOS-II\Source\os_core.o
OSRdyTbl            0x8               uCOS-II\Source\os_core.o
OSTmrTaskStk        0x200             uCOS-II\Source\os_core.o
Mem_PoolTbl         0x4               uC-LIB\lib_mem.o
OSEventFreeList     0x4               uCOS-II\Source\os_core.o
TS_State            0x8               BSP\bsp_ioe.o
OS_CPU_ExceptStk    0x200             uCOS-II\Ports\ARM-Cortex-M3\Generic\GNU\os_cpu_c.o
OSIntNesting        0x1               uCOS-II\Source\os_core.o
OSTCBCur            0x4               uCOS-II\Source\os_core.o
OSTmrTime           0x4               uCOS-II\Source\os_core.o
OSTime              0x4               uCOS-II\Source\os_core.o
OSTmrSem            0x4               uCOS-II\Source\os_core.o
OSTaskIdleStk       0x200             uCOS-II\Source\os_core.o
OSEventTbl          0x780             uCOS-II\Source\os_core.o
OSTCBTbl            0x790             uCOS-II\Source\os_core.o
OSFlagFreeList      0x4               uCOS-II\Source\os_core.o
OSStatRdy           0x1               uCOS-II\Source\os_core.o
OSTCBPrioTbl        0x100             uCOS-II\Source\os_core.o
CPU_Name            0x10              uC-CPU\cpu_core.o
OSIdleCtrRun        0x4               uCOS-II\Source\os_core.o

Discarded input sections

 .text          0x00000000        0x0 c:/program files (x86)/atollic/truestudio for arm pro 3.2.0/armtools/bin/../lib/gcc/arm-atollic-eabi/4.6.2/thumb/softfp/armv7e-m/fpv4-sp-d16/crti.o
 .data          0x00000000        0x0 c:/program files (x86)/atollic/truestudio for arm pro 3.2.0/armtools/bin/../lib/gcc/arm-atollic-eabi/4.6.2/thumb/softfp/armv7e-m/fpv4-sp-d16/crti.o
 .bss           0x00000000        0x0 c:/program files (x86)/atollic/truestudio for arm pro 3.2.0/armtools/bin/../lib/gcc/arm-atollic-eabi/4.6.2/thumb/softfp/armv7e-m/fpv4-sp-d16/crti.o
 .data          0x00000000        0x4 c:/program files (x86)/atollic/truestudio for arm pro 3.2.0/armtools/bin/../lib/gcc/arm-atollic-eabi/4.6.2/thumb/softfp/armv7e-m/fpv4-sp-d16/crtbegin.o
 .text          0x00000000        0x0 uCOS-II\Source\os_tmr.o
 .data          0x00000000        0x0 uCOS-II\Source\os_tmr.o
 .bss           0x00000000        0x0 uCOS-II\Source\os_tmr.o
 .text.OSTmrCreate
                0x00000000       0xac uCOS-II\Source\os_tmr.o
 .text.OSTmrDel
                0x00000000       0xc4 uCOS-II\Source\os_tmr.o
 .text.OSTmrNameGet
                0x00000000       0xa8 uCOS-II\Source\os_tmr.o
 .text.OSTmrRemainGet
                0x00000000      0x108 uCOS-II\Source\os_tmr.o
 .text.OSTmrStateGet
                0x00000000       0x78 uCOS-II\Source\os_tmr.o
 .text.OSTmrStart
                0x00000000       0xcc uCOS-II\Source\os_tmr.o
 .text.OSTmrStop
                0x00000000      0x120 uCOS-II\Source\os_tmr.o
 .text.OSTmr_Alloc
                0x00000000       0x88 uCOS-II\Source\os_tmr.o
 .text.OSTmr_Free
                0x00000000       0xa8 uCOS-II\Source\os_tmr.o
 .text          0x00000000        0x0 uCOS-II\Source\os_time.o
 .data          0x00000000        0x0 uCOS-II\Source\os_time.o
 .bss           0x00000000        0x0 uCOS-II\Source\os_time.o
 .text.OSTimeDlyResume
                0x00000000      0x124 uCOS-II\Source\os_time.o
 .text.OSTimeGet
                0x00000000       0x34 uCOS-II\Source\os_time.o
 .text.OSTimeSet
                0x00000000       0x30 uCOS-II\Source\os_time.o
 .text          0x00000000        0x0 uCOS-II\Source\os_task.o
 .data          0x00000000        0x0 uCOS-II\Source\os_task.o
 .bss           0x00000000        0x0 uCOS-II\Source\os_task.o
 .text.OSTaskChangePrio
                0x00000000      0x2cc uCOS-II\Source\os_task.o
 .text.OSTaskCreate
                0x00000000       0xec uCOS-II\Source\os_task.o
 .text.OSTaskDelReq
                0x00000000       0xa0 uCOS-II\Source\os_task.o
 .text.OSTaskNameGet
                0x00000000       0xc4 uCOS-II\Source\os_task.o
 .text.OSTaskResume
                0x00000000      0x10c uCOS-II\Source\os_task.o
 .text.OSTaskQuery
                0x00000000       0x84 uCOS-II\Source\os_task.o
 .text.OSTaskRegGet
                0x00000000       0x70 uCOS-II\Source\os_task.o
 .text.OSTaskRegGetID
                0x00000000       0x78 uCOS-II\Source\os_task.o
 .text.OSTaskRegSet
                0x00000000       0x6c uCOS-II\Source\os_task.o
 .text          0x00000000        0x0 uCOS-II\Source\os_sem.o
 .data          0x00000000        0x0 uCOS-II\Source\os_sem.o
 .bss           0x00000000        0x0 uCOS-II\Source\os_sem.o
 .text.OSSemAccept
                0x00000000       0x50 uCOS-II\Source\os_sem.o
 .text.OSSemDel
                0x00000000      0x168 uCOS-II\Source\os_sem.o
 .text.OSSemPendAbort
                0x00000000       0xc0 uCOS-II\Source\os_sem.o
 .text.OSSemQuery
                0x00000000       0x88 uCOS-II\Source\os_sem.o
 .text.OSSemSet
                0x00000000       0x6c uCOS-II\Source\os_sem.o
 .text          0x00000000        0x0 uCOS-II\Source\os_q.o
 .data          0x00000000        0x0 uCOS-II\Source\os_q.o
 .bss           0x00000000        0x0 uCOS-II\Source\os_q.o
 .text.OSQAccept
                0x00000000       0x98 uCOS-II\Source\os_q.o
 .rodata        0x00000000        0x4 uCOS-II\Source\os_q.o
 .text.OSQCreate
                0x00000000      0x12c uCOS-II\Source\os_q.o
 .text.OSQDel   0x00000000      0x1a8 uCOS-II\Source\os_q.o
 .text.OSQFlush
                0x00000000       0x48 uCOS-II\Source\os_q.o
 .text.OSQPend  0x00000000      0x1dc uCOS-II\Source\os_q.o
 .text.OSQPendAbort
                0x00000000       0xc0 uCOS-II\Source\os_q.o
 .text.OSQPost  0x00000000       0xb4 uCOS-II\Source\os_q.o
 .text.OSQPostFront
                0x00000000       0xb8 uCOS-II\Source\os_q.o
 .text.OSQPostOpt
                0x00000000      0x11c uCOS-II\Source\os_q.o
 .text.OSQQuery
                0x00000000       0xb4 uCOS-II\Source\os_q.o
 .text          0x00000000        0x0 uCOS-II\Source\os_mutex.o
 .data          0x00000000        0x0 uCOS-II\Source\os_mutex.o
 .bss           0x00000000        0x0 uCOS-II\Source\os_mutex.o
 .text.OSMutexAccept
                0x00000000       0xf0 uCOS-II\Source\os_mutex.o
 .rodata        0x00000000        0x4 uCOS-II\Source\os_mutex.o
 .text.OSMutexCreate
                0x00000000      0x118 uCOS-II\Source\os_mutex.o
 .text.OSMutexDel
                0x00000000      0x1f4 uCOS-II\Source\os_mutex.o
 .text.OSMutexPend
                0x00000000      0x3f4 uCOS-II\Source\os_mutex.o
 .text.OSMutexPost
                0x00000000      0x150 uCOS-II\Source\os_mutex.o
 .text.OSMutexQuery
                0x00000000       0xc4 uCOS-II\Source\os_mutex.o
 .text.OSMutex_RdyAtPrio
                0x00000000      0x138 uCOS-II\Source\os_mutex.o
 .text          0x00000000        0x0 uCOS-II\Source\os_mem.o
 .data          0x00000000        0x0 uCOS-II\Source\os_mem.o
 .bss           0x00000000        0x0 uCOS-II\Source\os_mem.o
 .text.OSMemCreate
                0x00000000       0xdc uCOS-II\Source\os_mem.o
 .text.OSMemGet
                0x00000000       0x68 uCOS-II\Source\os_mem.o
 .text.OSMemNameGet
                0x00000000       0x68 uCOS-II\Source\os_mem.o
 .text.OSMemNameSet
                0x00000000       0x50 uCOS-II\Source\os_mem.o
 .text.OSMemPut
                0x00000000       0x60 uCOS-II\Source\os_mem.o
 .text.OSMemQuery
                0x00000000       0x64 uCOS-II\Source\os_mem.o
 .text          0x00000000        0x0 uCOS-II\Source\os_mbox.o
 .data          0x00000000        0x0 uCOS-II\Source\os_mbox.o
 .bss           0x00000000        0x0 uCOS-II\Source\os_mbox.o
 .text.OSMboxAccept
                0x00000000       0x44 uCOS-II\Source\os_mbox.o
 .rodata        0x00000000        0x4 uCOS-II\Source\os_mbox.o
 .text.OSMboxCreate
                0x00000000       0x9c uCOS-II\Source\os_mbox.o
 .text.OSMboxDel
                0x00000000      0x168 uCOS-II\Source\os_mbox.o
 .text.OSMboxPend
                0x00000000      0x1b0 uCOS-II\Source\os_mbox.o
 .text.OSMboxPendAbort
                0x00000000       0xc0 uCOS-II\Source\os_mbox.o
 .text.OSMboxPost
                0x00000000       0x7c uCOS-II\Source\os_mbox.o
 .text.OSMboxPostOpt
                0x00000000       0xb4 uCOS-II\Source\os_mbox.o
 .text.OSMboxQuery
                0x00000000       0x88 uCOS-II\Source\os_mbox.o
 .text          0x00000000        0x0 uCOS-II\Source\os_flag.o
 .data          0x00000000        0x0 uCOS-II\Source\os_flag.o
 .bss           0x00000000        0x0 uCOS-II\Source\os_flag.o
 .text.OSFlagAccept
                0x00000000      0x198 uCOS-II\Source\os_flag.o
 .text.OSFlagCreate
                0x00000000       0xac uCOS-II\Source\os_flag.o
 .text.OSFlagDel
                0x00000000      0x16c uCOS-II\Source\os_flag.o
 .text.OSFlagNameGet
                0x00000000       0x84 uCOS-II\Source\os_flag.o
 .text.OSFlagNameSet
                0x00000000       0x68 uCOS-II\Source\os_flag.o
 .text.OSFlagPend
                0x00000000      0x37c uCOS-II\Source\os_flag.o
 .text.OSFlagPendGetFlagsRdy
                0x00000000       0x34 uCOS-II\Source\os_flag.o
 .text.OSFlagPost
                0x00000000      0x1fc uCOS-II\Source\os_flag.o
 .text.OSFlagQuery
                0x00000000       0x50 uCOS-II\Source\os_flag.o
 .text.OS_FlagBlock
                0x00000000      0x12c uCOS-II\Source\os_flag.o
 .text.OS_FlagTaskRdy
                0x00000000       0xb4 uCOS-II\Source\os_flag.o
 .text          0x00000000        0x0 uCOS-II\Source\os_core.o
 .data          0x00000000        0x0 uCOS-II\Source\os_core.o
 .bss           0x00000000        0x0 uCOS-II\Source\os_core.o
 .text.OSEventNameGet
                0x00000000       0x84 uCOS-II\Source\os_core.o
 .text.OSEventPendMulti
                0x00000000      0x420 uCOS-II\Source\os_core.o
 .text.OSVersion
                0x00000000       0x10 uCOS-II\Source\os_core.o
 .text.OS_EventTaskWaitMulti
                0x00000000      0x124 uCOS-II\Source\os_core.o
 .text.OS_MemCopy
                0x00000000       0x40 uCOS-II\Source\os_core.o
 .text.OS_StrLen
                0x00000000       0x38 uCOS-II\Source\os_core.o
 .text          0x00000000        0x0 uCOS-II\Ports\ARM-Cortex-M3\Generic\GNU\os_dbg.o
 .data          0x00000000        0x0 uCOS-II\Ports\ARM-Cortex-M3\Generic\GNU\os_dbg.o
 .bss           0x00000000        0x0 uCOS-II\Ports\ARM-Cortex-M3\Generic\GNU\os_dbg.o
 .text          0x00000000        0x0 uCOS-II\Ports\ARM-Cortex-M3\Generic\GNU\os_cpu_c.o
 .data          0x00000000        0x0 uCOS-II\Ports\ARM-Cortex-M3\Generic\GNU\os_cpu_c.o
 .bss           0x00000000        0x0 uCOS-II\Ports\ARM-Cortex-M3\Generic\GNU\os_cpu_c.o
 .data          0x00000000        0x0 uCOS-II\Ports\ARM-Cortex-M3\Generic\GNU\os_cpu_a.o
 .bss           0x00000000        0x0 uCOS-II\Ports\ARM-Cortex-M3\Generic\GNU\os_cpu_a.o
 .text          0x00000000        0x0 uC-LIB\lib_str.o
 .data          0x00000000        0x0 uC-LIB\lib_str.o
 .bss           0x00000000        0x0 uC-LIB\lib_str.o
 .rodata.Str_MultOvfThTbl_Int32U
                0x00000000       0x94 uC-LIB\lib_str.o
 .text.Str_Len  0x00000000       0x24 uC-LIB\lib_str.o
 .text.Str_Len_N
                0x00000000       0x4c uC-LIB\lib_str.o
 .text.Str_Copy
                0x00000000       0x28 uC-LIB\lib_str.o
 .text.Str_Copy_N
                0x00000000       0xa0 uC-LIB\lib_str.o
 .text.Str_Cat  0x00000000       0x28 uC-LIB\lib_str.o
 .text.Str_Cat_N
                0x00000000       0xc8 uC-LIB\lib_str.o
 .text.Str_Cmp  0x00000000       0x28 uC-LIB\lib_str.o
 .text.Str_Cmp_N
                0x00000000      0x138 uC-LIB\lib_str.o
 .text.Str_CmpIgnoreCase
                0x00000000       0x28 uC-LIB\lib_str.o
 .text.Str_CmpIgnoreCase_N
                0x00000000      0x194 uC-LIB\lib_str.o
 .text.Str_Char
                0x00000000       0x2c uC-LIB\lib_str.o
 .text.Str_Char_N
                0x00000000       0x9c uC-LIB\lib_str.o
 .text.Str_Char_Last
                0x00000000       0x2c uC-LIB\lib_str.o
 .text.Str_Char_Last_N
                0x00000000       0x88 uC-LIB\lib_str.o
 .text.Str_Char_Replace
                0x00000000       0x34 uC-LIB\lib_str.o
 .text.Str_Char_Replace_N
                0x00000000       0x78 uC-LIB\lib_str.o
 .text.Str_Str  0x00000000       0x28 uC-LIB\lib_str.o
 .text.Str_Str_N
                0x00000000      0x10c uC-LIB\lib_str.o
 .text.Str_FmtNbr_Int32U
                0x00000000       0x40 uC-LIB\lib_str.o
 .text.Str_FmtNbr_Int32S
                0x00000000       0x60 uC-LIB\lib_str.o
 .text.Str_ParseNbr_Int32U
                0x00000000       0x34 uC-LIB\lib_str.o
 .text.Str_ParseNbr_Int32S
                0x00000000       0x60 uC-LIB\lib_str.o
 .text.Str_FmtNbr_Int32
                0x00000000      0x2c8 uC-LIB\lib_str.o
 .text.Str_ParseNbr_Int32
                0x00000000      0x2e4 uC-LIB\lib_str.o
 .text          0x00000000        0x0 uC-LIB\lib_mem.o
 .data          0x00000000        0x0 uC-LIB\lib_mem.o
 .bss           0x00000000        0x0 uC-LIB\lib_mem.o
 .text.Mem_Copy
                0x00000000      0x11c uC-LIB\lib_mem.o
 .text.Mem_Move
                0x00000000      0x164 uC-LIB\lib_mem.o
 .text.Mem_Cmp  0x00000000      0x15c uC-LIB\lib_mem.o
 .text.Mem_HeapAlloc
                0x00000000      0x118 uC-LIB\lib_mem.o
 .text.Mem_HeapGetSizeRem
                0x00000000       0x2c uC-LIB\lib_mem.o
 .text.Mem_SegGetSizeRem
                0x00000000      0x10c uC-LIB\lib_mem.o
 .text.Mem_PoolClr
                0x00000000       0xc8 uC-LIB\lib_mem.o
 .text.Mem_PoolCreate
                0x00000000      0x4d8 uC-LIB\lib_mem.o
 .text.Mem_PoolBlkGetNbrAvail
                0x00000000       0x7c uC-LIB\lib_mem.o
 .text.Mem_PoolBlkGet
                0x00000000      0x104 uC-LIB\lib_mem.o
 .text.Mem_PoolBlkGetUsedAtIx
                0x00000000       0xf0 uC-LIB\lib_mem.o
 .text.Mem_PoolBlkFree
                0x00000000      0x18c uC-LIB\lib_mem.o
 .text.Mem_PoolBlkIxGet
                0x00000000      0x17c uC-LIB\lib_mem.o
 .text.Mem_PoolBlkIsValidAddr
                0x00000000       0xd0 uC-LIB\lib_mem.o
 .text.Mem_SegCalcTotSize
                0x00000000      0x130 uC-LIB\lib_mem.o
 .text.Mem_SegAlloc
                0x00000000       0xa8 uC-LIB\lib_mem.o
 .text          0x00000000        0x0 uC-LIB\lib_math.o
 .data          0x00000000        0x0 uC-LIB\lib_math.o
 .bss           0x00000000        0x0 uC-LIB\lib_math.o
 .text.Math_Init
                0x00000000       0x10 uC-LIB\lib_math.o
 .text.Math_RandSetSeed
                0x00000000       0x30 uC-LIB\lib_math.o
 .text.Math_Rand
                0x00000000       0x48 uC-LIB\lib_math.o
 .text.Math_RandSeed
                0x00000000       0x34 uC-LIB\lib_math.o
 COMMON         0x00000000        0x4 uC-LIB\lib_math.o
 .text          0x00000000        0x0 uC-LIB\lib_ascii.o
 .data          0x00000000        0x0 uC-LIB\lib_ascii.o
 .bss           0x00000000        0x0 uC-LIB\lib_ascii.o
 .text.ASCII_IsAlpha
                0x00000000       0x3c uC-LIB\lib_ascii.o
 .text.ASCII_IsAlphaNum
                0x00000000       0x48 uC-LIB\lib_ascii.o
 .text.ASCII_IsLower
                0x00000000       0x30 uC-LIB\lib_ascii.o
 .text.ASCII_IsUpper
                0x00000000       0x30 uC-LIB\lib_ascii.o
 .text.ASCII_IsDig
                0x00000000       0x30 uC-LIB\lib_ascii.o
 .text.ASCII_IsDigOct
                0x00000000       0x30 uC-LIB\lib_ascii.o
 .text.ASCII_IsDigHex
                0x00000000       0x48 uC-LIB\lib_ascii.o
 .text.ASCII_IsBlank
                0x00000000       0x30 uC-LIB\lib_ascii.o
 .text.ASCII_IsSpace
                0x00000000       0x48 uC-LIB\lib_ascii.o
 .text.ASCII_IsPrint
                0x00000000       0x30 uC-LIB\lib_ascii.o
 .text.ASCII_IsGraph
                0x00000000       0x30 uC-LIB\lib_ascii.o
 .text.ASCII_IsPunct
                0x00000000       0x78 uC-LIB\lib_ascii.o
 .text.ASCII_IsCtrl
                0x00000000       0x38 uC-LIB\lib_ascii.o
 .text.ASCII_ToLower
                0x00000000       0x34 uC-LIB\lib_ascii.o
 .text.ASCII_ToUpper
                0x00000000       0x34 uC-LIB\lib_ascii.o
 .text.ASCII_Cmp
                0x00000000       0x48 uC-LIB\lib_ascii.o
 .text          0x00000000        0x0 uC-CPU\cpu_core.o
 .data          0x00000000        0x0 uC-CPU\cpu_core.o
 .bss           0x00000000        0x0 uC-CPU\cpu_core.o
 .rodata.CPU_CntLeadZerosTbl
                0x00000000      0x100 uC-CPU\cpu_core.o
 .text.CPU_SW_Exception
                0x00000000        0x8 uC-CPU\cpu_core.o
 .text.CPU_NameGet
                0x00000000       0x5c uC-CPU\cpu_core.o
 .text.CPU_NameSet
                0x00000000       0x78 uC-CPU\cpu_core.o
 .text.CPU_TS_Get32
                0x00000000       0x1c uC-CPU\cpu_core.o
 .text.CPU_TS_Update
                0x00000000        0xc uC-CPU\cpu_core.o
 .text.CPU_TS_TmrFreqGet
                0x00000000       0x40 uC-CPU\cpu_core.o
 .text.CPU_CntLeadZeros08
                0x00000000       0x2c uC-CPU\cpu_core.o
 .text.CPU_CntLeadZeros16
                0x00000000       0x2c uC-CPU\cpu_core.o
 .text.CPU_CntLeadZeros32
                0x00000000       0x20 uC-CPU\cpu_core.o
 .text.CPU_CntLeadZeros64
                0x00000000      0x1ec uC-CPU\cpu_core.o
 .text.CPU_CntTrailZeros08
                0x00000000       0x30 uC-CPU\cpu_core.o
 .text.CPU_CntTrailZeros16
                0x00000000       0x30 uC-CPU\cpu_core.o
 .text.CPU_CntTrailZeros32
                0x00000000       0x2c uC-CPU\cpu_core.o
 .text.CPU_CntTrailZeros64
                0x00000000       0x54 uC-CPU\cpu_core.o
 .text          0x00000000        0x0 uC-CPU\ARM-Cortex-M3\GNU\cpu_c.o
 .data          0x00000000        0x0 uC-CPU\ARM-Cortex-M3\GNU\cpu_c.o
 .bss           0x00000000        0x0 uC-CPU\ARM-Cortex-M3\GNU\cpu_c.o
 .text.CPU_BitBandClr
                0x00000000       0x88 uC-CPU\ARM-Cortex-M3\GNU\cpu_c.o
 .text.CPU_BitBandSet
                0x00000000       0x88 uC-CPU\ARM-Cortex-M3\GNU\cpu_c.o
 .text.CPU_IntSrcDis
                0x00000000      0x198 uC-CPU\ARM-Cortex-M3\GNU\cpu_c.o
 .text.CPU_IntSrcPendClr
                0x00000000       0xd0 uC-CPU\ARM-Cortex-M3\GNU\cpu_c.o
 .text.CPU_IntSrcPrioSet
                0x00000000      0x2e0 uC-CPU\ARM-Cortex-M3\GNU\cpu_c.o
 .text.CPU_IntSrcPrioGet
                0x00000000      0x24c uC-CPU\ARM-Cortex-M3\GNU\cpu_c.o
 .data          0x00000000        0x0 uC-CPU\ARM-Cortex-M3\GNU\cpu_a.o
 .bss           0x00000000        0x0 uC-CPU\ARM-Cortex-M3\GNU\cpu_a.o
 .text          0x00000000       0x14 BSP\cstartup.o
 .data          0x00000000        0x0 BSP\cstartup.o
 .bss           0x00000000        0x0 BSP\cstartup.o
 .text.App_Reserved_ISR
                0x00000000        0x2 BSP\cstartup.o
 .text          0x00000000        0x0 BSP\bsp_ser.o
 .data          0x00000000        0x0 BSP\bsp_ser.o
 .bss           0x00000000        0x0 BSP\bsp_ser.o
 .text.BSP_Ser_RdByte
                0x00000000       0x38 BSP\bsp_ser.o
 .text.BSP_Ser_RdByteUnlocked
                0x00000000       0x58 BSP\bsp_ser.o
 .text.BSP_Ser_RdStr
                0x00000000       0xf4 BSP\bsp_ser.o
 .text.BSP_Ser_WrByte
                0x00000000       0x38 BSP\bsp_ser.o
 .text          0x00000000        0x0 BSP\bsp_lcd.o
 .data          0x00000000        0x0 BSP\bsp_lcd.o
 .bss           0x00000000        0x0 BSP\bsp_lcd.o
 .text.BSP_LCD_Init
                0x00000000      0x588 BSP\bsp_lcd.o
 .text.BSP_LCD_WriteReg
                0x00000000       0x2c BSP\bsp_lcd.o
 .text.BSP_LCD_ReadReg
                0x00000000       0x2c BSP\bsp_lcd.o
 .text.BSP_LCD_GPIO_Cfg
                0x00000000      0x21c BSP\bsp_lcd.o
 .text.BSP_LCD_FSMC_Init
                0x00000000       0xb0 BSP\bsp_lcd.o
 .text          0x00000000        0x0 BSP\bsp_ioe.o
 .data          0x00000000        0x0 BSP\bsp_ioe.o
 .bss           0x00000000        0x0 BSP\bsp_ioe.o
 .data.IOE_TimeOut
                0x00000000        0x4 BSP\bsp_ioe.o
 .text.BSP_IOE_Init
                0x00000000      0x11c BSP\bsp_ioe.o
 .text.BSP_IOE_GPIO_Cfg
                0x00000000       0xe4 BSP\bsp_ioe.o
 .text.BSP_IOE_I2C_Cfg
                0x00000000       0x48 BSP\bsp_ioe.o
 .text.BSP_IOE_Reset
                0x00000000       0x3c BSP\bsp_ioe.o
 .text.BSP_IOE_FnctCmd
                0x00000000       0x5c BSP\bsp_ioe.o
 .text.BSP_IOE_IOPin_Cfg
                0x00000000       0x5c BSP\bsp_ioe.o
 .text.BSP_IOE_IOAF_Cfg
                0x00000000       0x5c BSP\bsp_ioe.o
 .text.BSP_IOE_IOEdge_Cfg
                0x00000000       0xa0 BSP\bsp_ioe.o
 .text.BSP_IOE_WriteIOPin
                0x00000000       0x70 BSP\bsp_ioe.o
 .text.BSP_IOE_TS_Cfg
                0x00000000      0x178 BSP\bsp_ioe.o
 .text.BSP_IOE_TempSens_Cfg
                0x00000000       0x58 BSP\bsp_ioe.o
 .text.BSP_I2C_ReadDevReg
                0x00000000      0x320 BSP\bsp_ioe.o
 .text.BSP_I2C_WriteDevReg
                0x00000000      0x26c BSP\bsp_ioe.o
 .text.BSP_I2C_ReadDataBuffer
                0x00000000      0x334 BSP\bsp_ioe.o
 .text.BSP_IOE_TS_GetState
                0x00000000      0x138 BSP\bsp_ioe.o
 .text.BSP_IOE_TS_Read_X
                0x00000000       0x60 BSP\bsp_ioe.o
 .text.BSP_IOE_TS_Read_Y
                0x00000000       0x74 BSP\bsp_ioe.o
 .text.BSP_IOE_TS_Read_Z
                0x00000000       0x30 BSP\bsp_ioe.o
 .text.BSP_IOE_DMA_Config
                0x00000000       0xd4 BSP\bsp_ioe.o
 .bss._x.9126   0x00000000        0x2 BSP\bsp_ioe.o
 .bss._y.9127   0x00000000        0x2 BSP\bsp_ioe.o
 COMMON         0x00000000        0x8 BSP\bsp_ioe.o
 .text          0x00000000        0x0 BSP\bsp_int.o
 .data          0x00000000        0x0 BSP\bsp_int.o
 .bss           0x00000000        0x0 BSP\bsp_int.o
 .text.BSP_IntClr
                0x00000000       0x14 BSP\bsp_int.o
 .text.BSP_IntDis
                0x00000000       0x28 BSP\bsp_int.o
 .text.BSP_IntPrioSet
                0x00000000       0x44 BSP\bsp_int.o
 .text.BSP_IntInit
                0x00000000       0x34 BSP\bsp_int.o
 .text.BSP_IntHandlerDummy
                0x00000000        0xc BSP\bsp_int.o
 .text          0x00000000        0x0 BSP\bsp.o
 .data          0x00000000        0x0 BSP\bsp.o
 .bss           0x00000000        0x0 BSP\bsp.o
 .text.BSP_RNG_Read
                0x00000000       0xac BSP\bsp.o
 .text.BSP_PSRAM_Init
                0x00000000      0x4e4 BSP\bsp.o
 .text.BSP_SRAM_Init
                0x00000000      0x4a0 BSP\bsp.o
 .text.BSP_LED_On
                0x00000000       0x9c BSP\bsp.o
 .text.CPU_TS_TmrRd
                0x00000000       0x18 BSP\bsp.o
 .text          0x00000000        0x0 BSP\STM32F2xx\src\stm32f2xx_wwdg.o
 .data          0x00000000        0x0 BSP\STM32F2xx\src\stm32f2xx_wwdg.o
 .bss           0x00000000        0x0 BSP\STM32F2xx\src\stm32f2xx_wwdg.o
 .text.WWDG_DeInit
                0x00000000       0x20 BSP\STM32F2xx\src\stm32f2xx_wwdg.o
 .text.WWDG_SetPrescaler
                0x00000000       0x3c BSP\STM32F2xx\src\stm32f2xx_wwdg.o
 .text.WWDG_SetWindowValue
                0x00000000       0x44 BSP\STM32F2xx\src\stm32f2xx_wwdg.o
 .text.WWDG_EnableIT
                0x00000000       0x18 BSP\STM32F2xx\src\stm32f2xx_wwdg.o
 .text.WWDG_SetCounter
                0x00000000       0x24 BSP\STM32F2xx\src\stm32f2xx_wwdg.o
 .text.WWDG_Enable
                0x00000000       0x28 BSP\STM32F2xx\src\stm32f2xx_wwdg.o
 .text.WWDG_GetFlagStatus
                0x00000000       0x38 BSP\STM32F2xx\src\stm32f2xx_wwdg.o
 .text.WWDG_ClearFlag
                0x00000000       0x18 BSP\STM32F2xx\src\stm32f2xx_wwdg.o
 .text          0x00000000        0x0 BSP\STM32F2xx\src\stm32f2xx_usart.o
 .data          0x00000000        0x0 BSP\STM32F2xx\src\stm32f2xx_usart.o
 .bss           0x00000000        0x0 BSP\STM32F2xx\src\stm32f2xx_usart.o
 .text.USART_DeInit
                0x00000000      0x100 BSP\STM32F2xx\src\stm32f2xx_usart.o
 .text.USART_StructInit
                0x00000000       0x44 BSP\STM32F2xx\src\stm32f2xx_usart.o
 .text.USART_ClockStructInit
                0x00000000       0x34 BSP\STM32F2xx\src\stm32f2xx_usart.o
 .text.USART_SetPrescaler
                0x00000000       0x38 BSP\STM32F2xx\src\stm32f2xx_usart.o
 .text.USART_OverSampling8Cmd
                0x00000000       0x48 BSP\STM32F2xx\src\stm32f2xx_usart.o
 .text.USART_OneBitMethodCmd
                0x00000000       0x40 BSP\STM32F2xx\src\stm32f2xx_usart.o
 .text.USART_SetAddress
                0x00000000       0x38 BSP\STM32F2xx\src\stm32f2xx_usart.o
 .text.USART_ReceiverWakeUpCmd
                0x00000000       0x40 BSP\STM32F2xx\src\stm32f2xx_usart.o
 .text.USART_WakeUpConfig
                0x00000000       0x38 BSP\STM32F2xx\src\stm32f2xx_usart.o
 .text.USART_LINBreakDetectLengthConfig
                0x00000000       0x38 BSP\STM32F2xx\src\stm32f2xx_usart.o
 .text.USART_LINCmd
                0x00000000       0x40 BSP\STM32F2xx\src\stm32f2xx_usart.o
 .text.USART_SendBreak
                0x00000000       0x24 BSP\STM32F2xx\src\stm32f2xx_usart.o
 .text.USART_HalfDuplexCmd
                0x00000000       0x40 BSP\STM32F2xx\src\stm32f2xx_usart.o
 .text.USART_SetGuardTime
                0x00000000       0x3c BSP\STM32F2xx\src\stm32f2xx_usart.o
 .text.USART_SmartCardCmd
                0x00000000       0x40 BSP\STM32F2xx\src\stm32f2xx_usart.o
 .text.USART_SmartCardNACKCmd
                0x00000000       0x40 BSP\STM32F2xx\src\stm32f2xx_usart.o
 .text.USART_IrDAConfig
                0x00000000       0x38 BSP\STM32F2xx\src\stm32f2xx_usart.o
 .text.USART_IrDACmd
                0x00000000       0x40 BSP\STM32F2xx\src\stm32f2xx_usart.o
 .text.USART_DMACmd
                0x00000000       0x48 BSP\STM32F2xx\src\stm32f2xx_usart.o
 .text.USART_GetFlagStatus
                0x00000000       0x40 BSP\STM32F2xx\src\stm32f2xx_usart.o
 .text.USART_ClearFlag
                0x00000000       0x24 BSP\STM32F2xx\src\stm32f2xx_usart.o
 .text.USART_GetITStatus
                0x00000000       0xc4 BSP\STM32F2xx\src\stm32f2xx_usart.o
 .text          0x00000000        0x0 BSP\STM32F2xx\src\stm32f2xx_tim.o
 .data          0x00000000        0x0 BSP\STM32F2xx\src\stm32f2xx_tim.o
 .bss           0x00000000        0x0 BSP\STM32F2xx\src\stm32f2xx_tim.o
 .text.TIM_DeInit
                0x00000000      0x238 BSP\STM32F2xx\src\stm32f2xx_tim.o
 .text.TIM_TimeBaseInit
                0x00000000       0xf4 BSP\STM32F2xx\src\stm32f2xx_tim.o
 .text.TIM_TimeBaseStructInit
                0x00000000       0x3c BSP\STM32F2xx\src\stm32f2xx_tim.o
 .text.TIM_PrescalerConfig
                0x00000000       0x28 BSP\STM32F2xx\src\stm32f2xx_tim.o
 .text.TIM_CounterModeConfig
                0x00000000       0x38 BSP\STM32F2xx\src\stm32f2xx_tim.o
 .text.TIM_SetCounter
                0x00000000       0x1c BSP\STM32F2xx\src\stm32f2xx_tim.o
 .text.TIM_SetAutoreload
                0x00000000       0x1c BSP\STM32F2xx\src\stm32f2xx_tim.o
 .text.TIM_GetCounter
                0x00000000       0x18 BSP\STM32F2xx\src\stm32f2xx_tim.o
 .text.TIM_GetPrescaler
                0x00000000       0x1c BSP\STM32F2xx\src\stm32f2xx_tim.o
 .text.TIM_UpdateDisableConfig
                0x00000000       0x40 BSP\STM32F2xx\src\stm32f2xx_tim.o
 .text.TIM_UpdateRequestConfig
                0x00000000       0x40 BSP\STM32F2xx\src\stm32f2xx_tim.o
 .text.TIM_ARRPreloadConfig
                0x00000000       0x40 BSP\STM32F2xx\src\stm32f2xx_tim.o
 .text.TIM_SelectOnePulseMode
                0x00000000       0x38 BSP\STM32F2xx\src\stm32f2xx_tim.o
 .text.TIM_SetClockDivision
                0x00000000       0x38 BSP\STM32F2xx\src\stm32f2xx_tim.o
 .text.TIM_Cmd  0x00000000       0x40 BSP\STM32F2xx\src\stm32f2xx_tim.o
 .text.TIM_OC1Init
                0x00000000       0xfc BSP\STM32F2xx\src\stm32f2xx_tim.o
 .text.TIM_OC2Init
                0x00000000      0x128 BSP\STM32F2xx\src\stm32f2xx_tim.o
 .text.TIM_OC3Init
                0x00000000      0x120 BSP\STM32F2xx\src\stm32f2xx_tim.o
 .text.TIM_OC4Init
                0x00000000       0xe0 BSP\STM32F2xx\src\stm32f2xx_tim.o
 .text.TIM_OCStructInit
                0x00000000       0x54 BSP\STM32F2xx\src\stm32f2xx_tim.o
 .text.TIM_SelectOCxM
                0x00000000       0xc0 BSP\STM32F2xx\src\stm32f2xx_tim.o
 .text.TIM_SetCompare1
                0x00000000       0x1c BSP\STM32F2xx\src\stm32f2xx_tim.o
 .text.TIM_SetCompare2
                0x00000000       0x1c BSP\STM32F2xx\src\stm32f2xx_tim.o
 .text.TIM_SetCompare3
                0x00000000       0x1c BSP\STM32F2xx\src\stm32f2xx_tim.o
 .text.TIM_SetCompare4
                0x00000000       0x1c BSP\STM32F2xx\src\stm32f2xx_tim.o
 .text.TIM_ForcedOC1Config
                0x00000000       0x38 BSP\STM32F2xx\src\stm32f2xx_tim.o
 .text.TIM_ForcedOC2Config
                0x00000000       0x40 BSP\STM32F2xx\src\stm32f2xx_tim.o
 .text.TIM_ForcedOC3Config
                0x00000000       0x38 BSP\STM32F2xx\src\stm32f2xx_tim.o
 .text.TIM_ForcedOC4Config
                0x00000000       0x40 BSP\STM32F2xx\src\stm32f2xx_tim.o
 .text.TIM_OC1PreloadConfig
                0x00000000       0x38 BSP\STM32F2xx\src\stm32f2xx_tim.o
 .text.TIM_OC2PreloadConfig
                0x00000000       0x40 BSP\STM32F2xx\src\stm32f2xx_tim.o
 .text.TIM_OC3PreloadConfig
                0x00000000       0x38 BSP\STM32F2xx\src\stm32f2xx_tim.o
 .text.TIM_OC4PreloadConfig
                0x00000000       0x40 BSP\STM32F2xx\src\stm32f2xx_tim.o
 .text.TIM_OC1FastConfig
                0x00000000       0x38 BSP\STM32F2xx\src\stm32f2xx_tim.o
 .text.TIM_OC2FastConfig
                0x00000000       0x40 BSP\STM32F2xx\src\stm32f2xx_tim.o
 .text.TIM_OC3FastConfig
                0x00000000       0x38 BSP\STM32F2xx\src\stm32f2xx_tim.o
 .text.TIM_OC4FastConfig
                0x00000000       0x40 BSP\STM32F2xx\src\stm32f2xx_tim.o
 .text.TIM_ClearOC1Ref
                0x00000000       0x38 BSP\STM32F2xx\src\stm32f2xx_tim.o
 .text.TIM_ClearOC2Ref
                0x00000000       0x44 BSP\STM32F2xx\src\stm32f2xx_tim.o
 .text.TIM_ClearOC3Ref
                0x00000000       0x38 BSP\STM32F2xx\src\stm32f2xx_tim.o
 .text.TIM_ClearOC4Ref
                0x00000000       0x44 BSP\STM32F2xx\src\stm32f2xx_tim.o
 .text.TIM_OC1PolarityConfig
                0x00000000       0x38 BSP\STM32F2xx\src\stm32f2xx_tim.o
 .text.TIM_OC1NPolarityConfig
                0x00000000       0x38 BSP\STM32F2xx\src\stm32f2xx_tim.o
 .text.TIM_OC2PolarityConfig
                0x00000000       0x40 BSP\STM32F2xx\src\stm32f2xx_tim.o
 .text.TIM_OC2NPolarityConfig
                0x00000000       0x40 BSP\STM32F2xx\src\stm32f2xx_tim.o
 .text.TIM_OC3PolarityConfig
                0x00000000       0x40 BSP\STM32F2xx\src\stm32f2xx_tim.o
 .text.TIM_OC3NPolarityConfig
                0x00000000       0x40 BSP\STM32F2xx\src\stm32f2xx_tim.o
 .text.TIM_OC4PolarityConfig
                0x00000000       0x40 BSP\STM32F2xx\src\stm32f2xx_tim.o
 .text.TIM_CCxCmd
                0x00000000       0x5c BSP\STM32F2xx\src\stm32f2xx_tim.o
 .text.TIM_CCxNCmd
                0x00000000       0x5c BSP\STM32F2xx\src\stm32f2xx_tim.o
 .text.TIM_ICInit
                0x00000000       0xa8 BSP\STM32F2xx\src\stm32f2xx_tim.o
 .text.TIM_ICStructInit
                0x00000000       0x3c BSP\STM32F2xx\src\stm32f2xx_tim.o
 .text.TIM_PWMIConfig
                0x00000000       0xc4 BSP\STM32F2xx\src\stm32f2xx_tim.o
 .text.TIM_GetCapture1
                0x00000000       0x18 BSP\STM32F2xx\src\stm32f2xx_tim.o
 .text.TIM_GetCapture2
                0x00000000       0x18 BSP\STM32F2xx\src\stm32f2xx_tim.o
 .text.TIM_GetCapture3
                0x00000000       0x18 BSP\STM32F2xx\src\stm32f2xx_tim.o
 .text.TIM_GetCapture4
                0x00000000       0x18 BSP\STM32F2xx\src\stm32f2xx_tim.o
 .text.TIM_SetIC1Prescaler
                0x00000000       0x38 BSP\STM32F2xx\src\stm32f2xx_tim.o
 .text.TIM_SetIC2Prescaler
                0x00000000       0x3c BSP\STM32F2xx\src\stm32f2xx_tim.o
 .text.TIM_SetIC3Prescaler
                0x00000000       0x38 BSP\STM32F2xx\src\stm32f2xx_tim.o
 .text.TIM_SetIC4Prescaler
                0x00000000       0x3c BSP\STM32F2xx\src\stm32f2xx_tim.o
 .text.TIM_BDTRConfig
                0x00000000       0x50 BSP\STM32F2xx\src\stm32f2xx_tim.o
 .text.TIM_BDTRStructInit
                0x00000000       0x4c BSP\STM32F2xx\src\stm32f2xx_tim.o
 .text.TIM_CtrlPWMOutputs
                0x00000000       0x50 BSP\STM32F2xx\src\stm32f2xx_tim.o
 .text.TIM_SelectCOM
                0x00000000       0x40 BSP\STM32F2xx\src\stm32f2xx_tim.o
 .text.TIM_CCPreloadControl
                0x00000000       0x40 BSP\STM32F2xx\src\stm32f2xx_tim.o
 .text.TIM_ITConfig
                0x00000000       0x48 BSP\STM32F2xx\src\stm32f2xx_tim.o
 .text.TIM_GenerateEvent
                0x00000000       0x1c BSP\STM32F2xx\src\stm32f2xx_tim.o
 .text.TIM_GetFlagStatus
                0x00000000       0x40 BSP\STM32F2xx\src\stm32f2xx_tim.o
 .text.TIM_ClearFlag
                0x00000000       0x24 BSP\STM32F2xx\src\stm32f2xx_tim.o
 .text.TIM_GetITStatus
                0x00000000       0x60 BSP\STM32F2xx\src\stm32f2xx_tim.o
 .text.TIM_ClearITPendingBit
                0x00000000       0x24 BSP\STM32F2xx\src\stm32f2xx_tim.o
 .text.TIM_DMAConfig
                0x00000000       0x28 BSP\STM32F2xx\src\stm32f2xx_tim.o
 .text.TIM_DMACmd
                0x00000000       0x48 BSP\STM32F2xx\src\stm32f2xx_tim.o
 .text.TIM_SelectCCDMA
                0x00000000       0x40 BSP\STM32F2xx\src\stm32f2xx_tim.o
 .text.TIM_InternalClockConfig
                0x00000000       0x24 BSP\STM32F2xx\src\stm32f2xx_tim.o
 .text.TIM_ITRxExternalClockConfig
                0x00000000       0x30 BSP\STM32F2xx\src\stm32f2xx_tim.o
 .text.TIM_TIxExternalClockConfig
                0x00000000       0x58 BSP\STM32F2xx\src\stm32f2xx_tim.o
 .text.TIM_ETRClockMode1Config
                0x00000000       0x54 BSP\STM32F2xx\src\stm32f2xx_tim.o
 .text.TIM_ETRClockMode2Config
                0x00000000       0x34 BSP\STM32F2xx\src\stm32f2xx_tim.o
 .text.TIM_SelectInputTrigger
                0x00000000       0x38 BSP\STM32F2xx\src\stm32f2xx_tim.o
 .text.TIM_SelectOutputTrigger
                0x00000000       0x38 BSP\STM32F2xx\src\stm32f2xx_tim.o
 .text.TIM_SelectSlaveMode
                0x00000000       0x38 BSP\STM32F2xx\src\stm32f2xx_tim.o
 .text.TIM_SelectMasterSlaveMode
                0x00000000       0x38 BSP\STM32F2xx\src\stm32f2xx_tim.o
 .text.TIM_ETRConfig
                0x00000000       0x4c BSP\STM32F2xx\src\stm32f2xx_tim.o
 .text.TIM_EncoderInterfaceConfig
                0x00000000       0x94 BSP\STM32F2xx\src\stm32f2xx_tim.o
 .text.TIM_SelectHallSensor
                0x00000000       0x40 BSP\STM32F2xx\src\stm32f2xx_tim.o
 .text.TIM_RemapConfig
                0x00000000       0x20 BSP\STM32F2xx\src\stm32f2xx_tim.o
 .text.TI1_Config
                0x00000000       0x80 BSP\STM32F2xx\src\stm32f2xx_tim.o
 .text.TI2_Config
                0x00000000       0x9c BSP\STM32F2xx\src\stm32f2xx_tim.o
 .text.TI3_Config
                0x00000000       0x8c BSP\STM32F2xx\src\stm32f2xx_tim.o
 .text.TI4_Config
                0x00000000       0xa4 BSP\STM32F2xx\src\stm32f2xx_tim.o
 .text          0x00000000        0x0 BSP\STM32F2xx\src\stm32f2xx_syscfg.o
 .data          0x00000000        0x0 BSP\STM32F2xx\src\stm32f2xx_syscfg.o
 .bss           0x00000000        0x0 BSP\STM32F2xx\src\stm32f2xx_syscfg.o
 .text.SYSCFG_DeInit
                0x00000000       0x20 BSP\STM32F2xx\src\stm32f2xx_syscfg.o
 .text.SYSCFG_MemoryRemapConfig
                0x00000000       0x20 BSP\STM32F2xx\src\stm32f2xx_syscfg.o
 .text.SYSCFG_EXTILineConfig
                0x00000000       0xb4 BSP\STM32F2xx\src\stm32f2xx_syscfg.o
 .text.SYSCFG_ETH_MediaInterfaceConfig
                0x00000000       0x20 BSP\STM32F2xx\src\stm32f2xx_syscfg.o
 .text.SYSCFG_CompensationCellCmd
                0x00000000       0x20 BSP\STM32F2xx\src\stm32f2xx_syscfg.o
 .text.SYSCFG_GetCompensationCellStatus
                0x00000000       0x3c BSP\STM32F2xx\src\stm32f2xx_syscfg.o
 .text          0x00000000        0x0 BSP\STM32F2xx\src\stm32f2xx_spi.o
 .data          0x00000000        0x0 BSP\STM32F2xx\src\stm32f2xx_spi.o
 .bss           0x00000000        0x0 BSP\STM32F2xx\src\stm32f2xx_spi.o
 .text.SPI_I2S_DeInit
                0x00000000       0x88 BSP\STM32F2xx\src\stm32f2xx_spi.o
 .text.SPI_Init
                0x00000000       0x88 BSP\STM32F2xx\src\stm32f2xx_spi.o
 .text.I2S_Init
                0x00000000      0x214 BSP\STM32F2xx\src\stm32f2xx_spi.o
 .text.SPI_StructInit
                0x00000000       0x5c BSP\STM32F2xx\src\stm32f2xx_spi.o
 .text.I2S_StructInit
                0x00000000       0x44 BSP\STM32F2xx\src\stm32f2xx_spi.o
 .text.SPI_Cmd  0x00000000       0x40 BSP\STM32F2xx\src\stm32f2xx_spi.o
 .text.I2S_Cmd  0x00000000       0x40 BSP\STM32F2xx\src\stm32f2xx_spi.o
 .text.SPI_DataSizeConfig
                0x00000000       0x38 BSP\STM32F2xx\src\stm32f2xx_spi.o
 .text.SPI_BiDirectionalLineConfig
                0x00000000       0x40 BSP\STM32F2xx\src\stm32f2xx_spi.o
 .text.SPI_NSSInternalSoftwareConfig
                0x00000000       0x44 BSP\STM32F2xx\src\stm32f2xx_spi.o
 .text.SPI_SSOutputCmd
                0x00000000       0x40 BSP\STM32F2xx\src\stm32f2xx_spi.o
 .text.SPI_TIModeCmd
                0x00000000       0x40 BSP\STM32F2xx\src\stm32f2xx_spi.o
 .text.SPI_I2S_ReceiveData
                0x00000000       0x1c BSP\STM32F2xx\src\stm32f2xx_spi.o
 .text.SPI_I2S_SendData
                0x00000000       0x1c BSP\STM32F2xx\src\stm32f2xx_spi.o
 .text.SPI_CalculateCRC
                0x00000000       0x40 BSP\STM32F2xx\src\stm32f2xx_spi.o
 .text.SPI_TransmitCRC
                0x00000000       0x24 BSP\STM32F2xx\src\stm32f2xx_spi.o
 .text.SPI_GetCRC
                0x00000000       0x34 BSP\STM32F2xx\src\stm32f2xx_spi.o
 .text.SPI_GetCRCPolynomial
                0x00000000       0x1c BSP\STM32F2xx\src\stm32f2xx_spi.o
 .text.SPI_I2S_DMACmd
                0x00000000       0x48 BSP\STM32F2xx\src\stm32f2xx_spi.o
 .text.SPI_I2S_ITConfig
                0x00000000       0x6c BSP\STM32F2xx\src\stm32f2xx_spi.o
 .text.SPI_I2S_GetFlagStatus
                0x00000000       0x40 BSP\STM32F2xx\src\stm32f2xx_spi.o
 .text.SPI_I2S_ClearFlag
                0x00000000       0x24 BSP\STM32F2xx\src\stm32f2xx_spi.o
 .text.SPI_I2S_GetITStatus
                0x00000000       0x88 BSP\STM32F2xx\src\stm32f2xx_spi.o
 .text.SPI_I2S_ClearITPendingBit
                0x00000000       0x38 BSP\STM32F2xx\src\stm32f2xx_spi.o
 .text          0x00000000        0x0 BSP\STM32F2xx\src\stm32f2xx_sdio.o
 .data          0x00000000        0x0 BSP\STM32F2xx\src\stm32f2xx_sdio.o
 .bss           0x00000000        0x0 BSP\STM32F2xx\src\stm32f2xx_sdio.o
 .text.SDIO_DeInit
                0x00000000       0x20 BSP\STM32F2xx\src\stm32f2xx_sdio.o
 .text.SDIO_Init
                0x00000000       0x68 BSP\STM32F2xx\src\stm32f2xx_sdio.o
 .text.SDIO_StructInit
                0x00000000       0x44 BSP\STM32F2xx\src\stm32f2xx_sdio.o
 .text.SDIO_ClockCmd
                0x00000000       0x20 BSP\STM32F2xx\src\stm32f2xx_sdio.o
 .text.SDIO_SetPowerState
                0x00000000       0x44 BSP\STM32F2xx\src\stm32f2xx_sdio.o
 .text.SDIO_GetPowerState
                0x00000000       0x1c BSP\STM32F2xx\src\stm32f2xx_sdio.o
 .text.SDIO_SendCommand
                0x00000000       0x68 BSP\STM32F2xx\src\stm32f2xx_sdio.o
 .text.SDIO_CmdStructInit
                0x00000000       0x3c BSP\STM32F2xx\src\stm32f2xx_sdio.o
 .text.SDIO_GetCommandResponse
                0x00000000       0x18 BSP\STM32F2xx\src\stm32f2xx_sdio.o
 .text.SDIO_GetResponse
                0x00000000       0x2c BSP\STM32F2xx\src\stm32f2xx_sdio.o
 .text.SDIO_DataConfig
                0x00000000       0x70 BSP\STM32F2xx\src\stm32f2xx_sdio.o
 .text.SDIO_DataStructInit
                0x00000000       0x44 BSP\STM32F2xx\src\stm32f2xx_sdio.o
 .text.SDIO_GetDataCounter
                0x00000000       0x18 BSP\STM32F2xx\src\stm32f2xx_sdio.o
 .text.SDIO_ReadData
                0x00000000       0x18 BSP\STM32F2xx\src\stm32f2xx_sdio.o
 .text.SDIO_WriteData
                0x00000000       0x20 BSP\STM32F2xx\src\stm32f2xx_sdio.o
 .text.SDIO_GetFIFOCount
                0x00000000       0x18 BSP\STM32F2xx\src\stm32f2xx_sdio.o
 .text.SDIO_StartSDIOReadWait
                0x00000000       0x20 BSP\STM32F2xx\src\stm32f2xx_sdio.o
 .text.SDIO_StopSDIOReadWait
                0x00000000       0x20 BSP\STM32F2xx\src\stm32f2xx_sdio.o
 .text.SDIO_SetSDIOReadWaitMode
                0x00000000       0x20 BSP\STM32F2xx\src\stm32f2xx_sdio.o
 .text.SDIO_SetSDIOOperation
                0x00000000       0x20 BSP\STM32F2xx\src\stm32f2xx_sdio.o
 .text.SDIO_SendSDIOSuspendCmd
                0x00000000       0x20 BSP\STM32F2xx\src\stm32f2xx_sdio.o
 .text.SDIO_CommandCompletionCmd
                0x00000000       0x20 BSP\STM32F2xx\src\stm32f2xx_sdio.o
 .text.SDIO_CEATAITCmd
                0x00000000       0x2c BSP\STM32F2xx\src\stm32f2xx_sdio.o
 .text.SDIO_SendCEATACmd
                0x00000000       0x20 BSP\STM32F2xx\src\stm32f2xx_sdio.o
 .text.SDIO_DMACmd
                0x00000000       0x20 BSP\STM32F2xx\src\stm32f2xx_sdio.o
 .text.SDIO_ITConfig
                0x00000000       0x58 BSP\STM32F2xx\src\stm32f2xx_sdio.o
 .text.SDIO_GetFlagStatus
                0x00000000       0x40 BSP\STM32F2xx\src\stm32f2xx_sdio.o
 .text.SDIO_ClearFlag
                0x00000000       0x20 BSP\STM32F2xx\src\stm32f2xx_sdio.o
 .text.SDIO_GetITStatus
                0x00000000       0x40 BSP\STM32F2xx\src\stm32f2xx_sdio.o
 .text.SDIO_ClearITPendingBit
                0x00000000       0x20 BSP\STM32F2xx\src\stm32f2xx_sdio.o
 .text          0x00000000        0x0 BSP\STM32F2xx\src\stm32f2xx_rtc.o
 .data          0x00000000        0x0 BSP\STM32F2xx\src\stm32f2xx_rtc.o
 .bss           0x00000000        0x0 BSP\STM32F2xx\src\stm32f2xx_rtc.o
 .text.RTC_DeInit
                0x00000000      0x16c BSP\STM32F2xx\src\stm32f2xx_rtc.o
 .text.RTC_Init
                0x00000000       0xc4 BSP\STM32F2xx\src\stm32f2xx_rtc.o
 .text.RTC_StructInit
                0x00000000       0x2c BSP\STM32F2xx\src\stm32f2xx_rtc.o
 .text.RTC_WriteProtectionCmd
                0x00000000       0x48 BSP\STM32F2xx\src\stm32f2xx_rtc.o
 .text.RTC_EnterInitMode
                0x00000000       0x94 BSP\STM32F2xx\src\stm32f2xx_rtc.o
 .text.RTC_ExitInitMode
                0x00000000       0x24 BSP\STM32F2xx\src\stm32f2xx_rtc.o
 .text.RTC_WaitForSynchro
                0x00000000       0xb0 BSP\STM32F2xx\src\stm32f2xx_rtc.o
 .text.RTC_RefClockCmd
                0x00000000       0x9c BSP\STM32F2xx\src\stm32f2xx_rtc.o
 .text.RTC_SetTime
                0x00000000      0x148 BSP\STM32F2xx\src\stm32f2xx_rtc.o
 .text.RTC_TimeStructInit
                0x00000000       0x34 BSP\STM32F2xx\src\stm32f2xx_rtc.o
 .text.RTC_GetTime
                0x00000000       0xac BSP\STM32F2xx\src\stm32f2xx_rtc.o
 .text.RTC_SetDate
                0x00000000      0x140 BSP\STM32F2xx\src\stm32f2xx_rtc.o
 .text.RTC_DateStructInit
                0x00000000       0x34 BSP\STM32F2xx\src\stm32f2xx_rtc.o
 .text.RTC_GetDate
                0x00000000       0xb0 BSP\STM32F2xx\src\stm32f2xx_rtc.o
 .text.RTC_SetAlarm
                0x00000000      0x17c BSP\STM32F2xx\src\stm32f2xx_rtc.o
 .text.RTC_AlarmStructInit
                0x00000000       0x4c BSP\STM32F2xx\src\stm32f2xx_rtc.o
 .text.RTC_GetAlarm
                0x00000000       0xec BSP\STM32F2xx\src\stm32f2xx_rtc.o
 .text.RTC_AlarmCmd
                0x00000000       0xf0 BSP\STM32F2xx\src\stm32f2xx_rtc.o
 .text.RTC_WakeUpClockConfig
                0x00000000       0x70 BSP\STM32F2xx\src\stm32f2xx_rtc.o
 .text.RTC_SetWakeUpCounter
                0x00000000       0x48 BSP\STM32F2xx\src\stm32f2xx_rtc.o
 .text.RTC_GetWakeUpCounter
                0x00000000       0x20 BSP\STM32F2xx\src\stm32f2xx_rtc.o
 .text.RTC_WakeUpCmd
                0x00000000       0xd8 BSP\STM32F2xx\src\stm32f2xx_rtc.o
 .text.RTC_DayLightSavingConfig
                0x00000000       0x74 BSP\STM32F2xx\src\stm32f2xx_rtc.o
 .text.RTC_GetStoreOperation
                0x00000000       0x1c BSP\STM32F2xx\src\stm32f2xx_rtc.o
 .text.RTC_OutputConfig
                0x00000000       0x74 BSP\STM32F2xx\src\stm32f2xx_rtc.o
 .text.RTC_CoarseCalibConfig
                0x00000000       0x74 BSP\STM32F2xx\src\stm32f2xx_rtc.o
 .text.RTC_CoarseCalibCmd
                0x00000000       0x9c BSP\STM32F2xx\src\stm32f2xx_rtc.o
 .text.RTC_CalibOutputCmd
                0x00000000       0x78 BSP\STM32F2xx\src\stm32f2xx_rtc.o
 .text.RTC_TimeStampCmd
                0x00000000       0x84 BSP\STM32F2xx\src\stm32f2xx_rtc.o
 .text.RTC_GetTimeStamp
                0x00000000      0x134 BSP\STM32F2xx\src\stm32f2xx_rtc.o
 .text.RTC_TamperTriggerConfig
                0x00000000       0x5c BSP\STM32F2xx\src\stm32f2xx_rtc.o
 .text.RTC_TamperCmd
                0x00000000       0x58 BSP\STM32F2xx\src\stm32f2xx_rtc.o
 .text.RTC_WriteBackupRegister
                0x00000000       0x38 BSP\STM32F2xx\src\stm32f2xx_rtc.o
 .text.RTC_ReadBackupRegister
                0x00000000       0x34 BSP\STM32F2xx\src\stm32f2xx_rtc.o
 .text.RTC_TamperPinSelection
                0x00000000       0x44 BSP\STM32F2xx\src\stm32f2xx_rtc.o
 .text.RTC_TimeStampPinSelection
                0x00000000       0x44 BSP\STM32F2xx\src\stm32f2xx_rtc.o
 .text.RTC_OutputTypeConfig
                0x00000000       0x44 BSP\STM32F2xx\src\stm32f2xx_rtc.o
 .text.RTC_ITConfig
                0x00000000       0xc8 BSP\STM32F2xx\src\stm32f2xx_rtc.o
 .text.RTC_GetFlagStatus
                0x00000000       0x50 BSP\STM32F2xx\src\stm32f2xx_rtc.o
 .text.RTC_ClearFlag
                0x00000000       0x40 BSP\STM32F2xx\src\stm32f2xx_rtc.o
 .text.RTC_GetITStatus
                0x00000000       0x90 BSP\STM32F2xx\src\stm32f2xx_rtc.o
 .text.RTC_ClearITPendingBit
                0x00000000       0x4c BSP\STM32F2xx\src\stm32f2xx_rtc.o
 .text.RTC_ByteToBcd2
                0x00000000       0x44 BSP\STM32F2xx\src\stm32f2xx_rtc.o
 .text.RTC_Bcd2ToByte
                0x00000000       0x40 BSP\STM32F2xx\src\stm32f2xx_rtc.o
 .text          0x00000000        0x0 BSP\STM32F2xx\src\stm32f2xx_rng.o
 .data          0x00000000        0x0 BSP\STM32F2xx\src\stm32f2xx_rng.o
 .bss           0x00000000        0x0 BSP\STM32F2xx\src\stm32f2xx_rng.o
 .text.RNG_DeInit
                0x00000000       0x20 BSP\STM32F2xx\src\stm32f2xx_rng.o
 .text.RNG_Cmd  0x00000000       0x4c BSP\STM32F2xx\src\stm32f2xx_rng.o
 .text.RNG_GetRandomNumber
                0x00000000       0x18 BSP\STM32F2xx\src\stm32f2xx_rng.o
 .text.RNG_ITConfig
                0x00000000       0x4c BSP\STM32F2xx\src\stm32f2xx_rng.o
 .text.RNG_GetFlagStatus
                0x00000000       0x40 BSP\STM32F2xx\src\stm32f2xx_rng.o
 .text.RNG_ClearFlag
                0x00000000       0x28 BSP\STM32F2xx\src\stm32f2xx_rng.o
 .text.RNG_GetITStatus
                0x00000000       0x40 BSP\STM32F2xx\src\stm32f2xx_rng.o
 .text.RNG_ClearITPendingBit
                0x00000000       0x28 BSP\STM32F2xx\src\stm32f2xx_rng.o
 .text          0x00000000        0x0 BSP\STM32F2xx\src\stm32f2xx_rcc.o
 .data          0x00000000        0x0 BSP\STM32F2xx\src\stm32f2xx_rcc.o
 .bss           0x00000000        0x0 BSP\STM32F2xx\src\stm32f2xx_rcc.o
 .text.RCC_DeInit
                0x00000000       0x84 BSP\STM32F2xx\src\stm32f2xx_rcc.o
 .text.RCC_HSEConfig
                0x00000000       0x30 BSP\STM32F2xx\src\stm32f2xx_rcc.o
 .text.RCC_WaitForHSEStartUp
                0x00000000       0x64 BSP\STM32F2xx\src\stm32f2xx_rcc.o
 .text.RCC_AdjustHSICalibrationValue
                0x00000000       0x48 BSP\STM32F2xx\src\stm32f2xx_rcc.o
 .text.RCC_HSICmd
                0x00000000       0x20 BSP\STM32F2xx\src\stm32f2xx_rcc.o
 .text.RCC_LSEConfig
                0x00000000       0x60 BSP\STM32F2xx\src\stm32f2xx_rcc.o
 .text.RCC_LSICmd
                0x00000000       0x20 BSP\STM32F2xx\src\stm32f2xx_rcc.o
 .text.RCC_PLLConfig
                0x00000000       0x48 BSP\STM32F2xx\src\stm32f2xx_rcc.o
 .text.RCC_PLLCmd
                0x00000000       0x20 BSP\STM32F2xx\src\stm32f2xx_rcc.o
 .text.RCC_PLLI2SConfig
                0x00000000       0x30 BSP\STM32F2xx\src\stm32f2xx_rcc.o
 .text.RCC_PLLI2SCmd
                0x00000000       0x20 BSP\STM32F2xx\src\stm32f2xx_rcc.o
 .text.RCC_ClockSecuritySystemCmd
                0x00000000       0x20 BSP\STM32F2xx\src\stm32f2xx_rcc.o
 .text.RCC_MCO1Config
                0x00000000       0x48 BSP\STM32F2xx\src\stm32f2xx_rcc.o
 .text.RCC_MCO2Config
                0x00000000       0x48 BSP\STM32F2xx\src\stm32f2xx_rcc.o
 .text.RCC_SYSCLKConfig
                0x00000000       0x40 BSP\STM32F2xx\src\stm32f2xx_rcc.o
 .text.RCC_GetSYSCLKSource
                0x00000000       0x20 BSP\STM32F2xx\src\stm32f2xx_rcc.o
 .text.RCC_HCLKConfig
                0x00000000       0x40 BSP\STM32F2xx\src\stm32f2xx_rcc.o
 .text.RCC_PCLK1Config
                0x00000000       0x40 BSP\STM32F2xx\src\stm32f2xx_rcc.o
 .text.RCC_PCLK2Config
                0x00000000       0x44 BSP\STM32F2xx\src\stm32f2xx_rcc.o
 .text.RCC_RTCCLKConfig
                0x00000000       0x78 BSP\STM32F2xx\src\stm32f2xx_rcc.o
 .text.RCC_RTCCLKCmd
                0x00000000       0x20 BSP\STM32F2xx\src\stm32f2xx_rcc.o
 .text.RCC_BackupResetCmd
                0x00000000       0x20 BSP\STM32F2xx\src\stm32f2xx_rcc.o
 .text.RCC_I2SCLKConfig
                0x00000000       0x20 BSP\STM32F2xx\src\stm32f2xx_rcc.o
 .text.RCC_AHB2PeriphClockCmd
                0x00000000       0x58 BSP\STM32F2xx\src\stm32f2xx_rcc.o
 .text.RCC_AHB3PeriphClockCmd
                0x00000000       0x58 BSP\STM32F2xx\src\stm32f2xx_rcc.o
 .text.RCC_APB2PeriphClockCmd
                0x00000000       0x58 BSP\STM32F2xx\src\stm32f2xx_rcc.o
 .text.RCC_AHB1PeriphResetCmd
                0x00000000       0x58 BSP\STM32F2xx\src\stm32f2xx_rcc.o
 .text.RCC_AHB2PeriphResetCmd
                0x00000000       0x58 BSP\STM32F2xx\src\stm32f2xx_rcc.o
 .text.RCC_AHB3PeriphResetCmd
                0x00000000       0x58 BSP\STM32F2xx\src\stm32f2xx_rcc.o
 .text.RCC_APB1PeriphResetCmd
                0x00000000       0x58 BSP\STM32F2xx\src\stm32f2xx_rcc.o
 .text.RCC_APB2PeriphResetCmd
                0x00000000       0x58 BSP\STM32F2xx\src\stm32f2xx_rcc.o
 .text.RCC_AHB1PeriphClockLPModeCmd
                0x00000000       0x58 BSP\STM32F2xx\src\stm32f2xx_rcc.o
 .text.RCC_AHB2PeriphClockLPModeCmd
                0x00000000       0x58 BSP\STM32F2xx\src\stm32f2xx_rcc.o
 .text.RCC_AHB3PeriphClockLPModeCmd
                0x00000000       0x58 BSP\STM32F2xx\src\stm32f2xx_rcc.o
 .text.RCC_APB1PeriphClockLPModeCmd
                0x00000000       0x58 BSP\STM32F2xx\src\stm32f2xx_rcc.o
 .text.RCC_APB2PeriphClockLPModeCmd
                0x00000000       0x58 BSP\STM32F2xx\src\stm32f2xx_rcc.o
 .text.RCC_ITConfig
                0x00000000       0x60 BSP\STM32F2xx\src\stm32f2xx_rcc.o
 .text.RCC_GetFlagStatus
                0x00000000       0x90 BSP\STM32F2xx\src\stm32f2xx_rcc.o
 .text.RCC_ClearFlag
                0x00000000       0x24 BSP\STM32F2xx\src\stm32f2xx_rcc.o
 .text.RCC_GetITStatus
                0x00000000       0x40 BSP\STM32F2xx\src\stm32f2xx_rcc.o
 .text.RCC_ClearITPendingBit
                0x00000000       0x20 BSP\STM32F2xx\src\stm32f2xx_rcc.o
 .text          0x00000000        0x0 BSP\STM32F2xx\src\stm32f2xx_pwr.o
 .data          0x00000000        0x0 BSP\STM32F2xx\src\stm32f2xx_pwr.o
 .bss           0x00000000        0x0 BSP\STM32F2xx\src\stm32f2xx_pwr.o
 .text.PWR_DeInit
                0x00000000       0x20 BSP\STM32F2xx\src\stm32f2xx_pwr.o
 .text.PWR_BackupAccessCmd
                0x00000000       0x20 BSP\STM32F2xx\src\stm32f2xx_pwr.o
 .text.PWR_PVDLevelConfig
                0x00000000       0x40 BSP\STM32F2xx\src\stm32f2xx_pwr.o
 .text.PWR_PVDCmd
                0x00000000       0x20 BSP\STM32F2xx\src\stm32f2xx_pwr.o
 .text.PWR_WakeUpPinCmd
                0x00000000       0x20 BSP\STM32F2xx\src\stm32f2xx_pwr.o
 .text.PWR_BackupRegulatorCmd
                0x00000000       0x20 BSP\STM32F2xx\src\stm32f2xx_pwr.o
 .text.PWR_FlashPowerDownCmd
                0x00000000       0x20 BSP\STM32F2xx\src\stm32f2xx_pwr.o
 .text.PWR_EnterSTOPMode
                0x00000000       0x80 BSP\STM32F2xx\src\stm32f2xx_pwr.o
 .text.PWR_EnterSTANDBYMode
                0x00000000       0x54 BSP\STM32F2xx\src\stm32f2xx_pwr.o
 .text.PWR_GetFlagStatus
                0x00000000       0x40 BSP\STM32F2xx\src\stm32f2xx_pwr.o
 .text.PWR_ClearFlag
                0x00000000       0x30 BSP\STM32F2xx\src\stm32f2xx_pwr.o
 .text          0x00000000        0x0 BSP\STM32F2xx\src\stm32f2xx_iwdg.o
 .data          0x00000000        0x0 BSP\STM32F2xx\src\stm32f2xx_iwdg.o
 .bss           0x00000000        0x0 BSP\STM32F2xx\src\stm32f2xx_iwdg.o
 .text.IWDG_WriteAccessCmd
                0x00000000       0x20 BSP\STM32F2xx\src\stm32f2xx_iwdg.o
 .text.IWDG_SetPrescaler
                0x00000000       0x20 BSP\STM32F2xx\src\stm32f2xx_iwdg.o
 .text.IWDG_SetReload
                0x00000000       0x20 BSP\STM32F2xx\src\stm32f2xx_iwdg.o
 .text.IWDG_ReloadCounter
                0x00000000       0x18 BSP\STM32F2xx\src\stm32f2xx_iwdg.o
 .text.IWDG_Enable
                0x00000000       0x18 BSP\STM32F2xx\src\stm32f2xx_iwdg.o
 .text.IWDG_GetFlagStatus
                0x00000000       0x40 BSP\STM32F2xx\src\stm32f2xx_iwdg.o
 .text          0x00000000        0x0 BSP\STM32F2xx\src\stm32f2xx_i2c.o
 .data          0x00000000        0x0 BSP\STM32F2xx\src\stm32f2xx_i2c.o
 .bss           0x00000000        0x0 BSP\STM32F2xx\src\stm32f2xx_i2c.o
 .text.I2C_DeInit
                0x00000000       0x88 BSP\STM32F2xx\src\stm32f2xx_i2c.o
 .text.I2C_Init
                0x00000000      0x1ac BSP\STM32F2xx\src\stm32f2xx_i2c.o
 .text.I2C_StructInit
                0x00000000       0x44 BSP\STM32F2xx\src\stm32f2xx_i2c.o
 .text.I2C_Cmd  0x00000000       0x40 BSP\STM32F2xx\src\stm32f2xx_i2c.o
 .text.I2C_GenerateSTART
                0x00000000       0x40 BSP\STM32F2xx\src\stm32f2xx_i2c.o
 .text.I2C_GenerateSTOP
                0x00000000       0x40 BSP\STM32F2xx\src\stm32f2xx_i2c.o
 .text.I2C_Send7bitAddress
                0x00000000       0x3c BSP\STM32F2xx\src\stm32f2xx_i2c.o
 .text.I2C_AcknowledgeConfig
                0x00000000       0x40 BSP\STM32F2xx\src\stm32f2xx_i2c.o
 .text.I2C_OwnAddress2Config
                0x00000000       0x44 BSP\STM32F2xx\src\stm32f2xx_i2c.o
 .text.I2C_DualAddressCmd
                0x00000000       0x40 BSP\STM32F2xx\src\stm32f2xx_i2c.o
 .text.I2C_GeneralCallCmd
                0x00000000       0x40 BSP\STM32F2xx\src\stm32f2xx_i2c.o
 .text.I2C_SoftwareResetCmd
                0x00000000       0x48 BSP\STM32F2xx\src\stm32f2xx_i2c.o
 .text.I2C_StretchClockCmd
                0x00000000       0x40 BSP\STM32F2xx\src\stm32f2xx_i2c.o
 .text.I2C_FastModeDutyCycleConfig
                0x00000000       0x40 BSP\STM32F2xx\src\stm32f2xx_i2c.o
 .text.I2C_NACKPositionConfig
                0x00000000       0x40 BSP\STM32F2xx\src\stm32f2xx_i2c.o
 .text.I2C_SMBusAlertConfig
                0x00000000       0x40 BSP\STM32F2xx\src\stm32f2xx_i2c.o
 .text.I2C_ARPCmd
                0x00000000       0x40 BSP\STM32F2xx\src\stm32f2xx_i2c.o
 .text.I2C_SendData
                0x00000000       0x20 BSP\STM32F2xx\src\stm32f2xx_i2c.o
 .text.I2C_ReceiveData
                0x00000000       0x1c BSP\STM32F2xx\src\stm32f2xx_i2c.o
 .text.I2C_TransmitPEC
                0x00000000       0x40 BSP\STM32F2xx\src\stm32f2xx_i2c.o
 .text.I2C_PECPositionConfig
                0x00000000       0x40 BSP\STM32F2xx\src\stm32f2xx_i2c.o
 .text.I2C_CalculatePEC
                0x00000000       0x40 BSP\STM32F2xx\src\stm32f2xx_i2c.o
 .text.I2C_GetPEC
                0x00000000       0x24 BSP\STM32F2xx\src\stm32f2xx_i2c.o
 .text.I2C_DMACmd
                0x00000000       0x40 BSP\STM32F2xx\src\stm32f2xx_i2c.o
 .text.I2C_DMALastTransferCmd
                0x00000000       0x40 BSP\STM32F2xx\src\stm32f2xx_i2c.o
 .text.I2C_ReadRegister
                0x00000000       0x30 BSP\STM32F2xx\src\stm32f2xx_i2c.o
 .text.I2C_ITConfig
                0x00000000       0x48 BSP\STM32F2xx\src\stm32f2xx_i2c.o
 .text.I2C_CheckEvent
                0x00000000       0x70 BSP\STM32F2xx\src\stm32f2xx_i2c.o
 .text.I2C_GetLastEvent
                0x00000000       0x4c BSP\STM32F2xx\src\stm32f2xx_i2c.o
 .text.I2C_GetFlagStatus
                0x00000000       0x78 BSP\STM32F2xx\src\stm32f2xx_i2c.o
 .text.I2C_ClearFlag
                0x00000000       0x30 BSP\STM32F2xx\src\stm32f2xx_i2c.o
 .text.I2C_GetITStatus
                0x00000000       0x64 BSP\STM32F2xx\src\stm32f2xx_i2c.o
 .text.I2C_ClearITPendingBit
                0x00000000       0x30 BSP\STM32F2xx\src\stm32f2xx_i2c.o
 .text          0x00000000        0x0 BSP\STM32F2xx\src\stm32f2xx_hash_sha1.o
 .data          0x00000000        0x0 BSP\STM32F2xx\src\stm32f2xx_hash_sha1.o
 .bss           0x00000000        0x0 BSP\STM32F2xx\src\stm32f2xx_hash_sha1.o
 .text.HASH_SHA1
                0x00000000      0x158 BSP\STM32F2xx\src\stm32f2xx_hash_sha1.o
 .text.HMAC_SHA1
                0x00000000      0x270 BSP\STM32F2xx\src\stm32f2xx_hash_sha1.o
 .text          0x00000000        0x0 BSP\STM32F2xx\src\stm32f2xx_hash_md5.o
 .data          0x00000000        0x0 BSP\STM32F2xx\src\stm32f2xx_hash_md5.o
 .bss           0x00000000        0x0 BSP\STM32F2xx\src\stm32f2xx_hash_md5.o
 .text.HASH_MD5
                0x00000000      0x140 BSP\STM32F2xx\src\stm32f2xx_hash_md5.o
 .text.HMAC_MD5
                0x00000000      0x258 BSP\STM32F2xx\src\stm32f2xx_hash_md5.o
 .text          0x00000000        0x0 BSP\STM32F2xx\src\stm32f2xx_hash.o
 .data          0x00000000        0x0 BSP\STM32F2xx\src\stm32f2xx_hash.o
 .bss           0x00000000        0x0 BSP\STM32F2xx\src\stm32f2xx_hash.o
 .text.HASH_DeInit
                0x00000000       0x20 BSP\STM32F2xx\src\stm32f2xx_hash.o
 .text.HASH_Init
                0x00000000       0xa8 BSP\STM32F2xx\src\stm32f2xx_hash.o
 .text.HASH_StructInit
                0x00000000       0x34 BSP\STM32F2xx\src\stm32f2xx_hash.o
 .text.HASH_Reset
                0x00000000       0x24 BSP\STM32F2xx\src\stm32f2xx_hash.o
 .text.HASH_SetLastWordValidBitsNbr
                0x00000000       0x48 BSP\STM32F2xx\src\stm32f2xx_hash.o
 .text.HASH_DataIn
                0x00000000       0x20 BSP\STM32F2xx\src\stm32f2xx_hash.o
 .text.HASH_GetInFIFOWordsNbr
                0x00000000       0x20 BSP\STM32F2xx\src\stm32f2xx_hash.o
 .text.HASH_GetDigest
                0x00000000       0x64 BSP\STM32F2xx\src\stm32f2xx_hash.o
 .text.HASH_StartDigest
                0x00000000       0x24 BSP\STM32F2xx\src\stm32f2xx_hash.o
 .text.HASH_SaveContext
                0x00000000       0x84 BSP\STM32F2xx\src\stm32f2xx_hash.o
 .text.HASH_RestoreContext
                0x00000000       0x94 BSP\STM32F2xx\src\stm32f2xx_hash.o
 .text.HASH_DMACmd
                0x00000000       0x4c BSP\STM32F2xx\src\stm32f2xx_hash.o
 .text.HASH_ITConfig
                0x00000000       0x5c BSP\STM32F2xx\src\stm32f2xx_hash.o
 .text.HASH_GetFlagStatus
                0x00000000       0x60 BSP\STM32F2xx\src\stm32f2xx_hash.o
 .text.HASH_ClearFlag
                0x00000000       0x24 BSP\STM32F2xx\src\stm32f2xx_hash.o
 .text.HASH_GetITStatus
                0x00000000       0x58 BSP\STM32F2xx\src\stm32f2xx_hash.o
 .text.HASH_ClearITPendingBit
                0x00000000       0x28 BSP\STM32F2xx\src\stm32f2xx_hash.o
 .text          0x00000000        0x0 BSP\STM32F2xx\src\stm32f2xx_gpio.o
 .data          0x00000000        0x0 BSP\STM32F2xx\src\stm32f2xx_gpio.o
 .bss           0x00000000        0x0 BSP\STM32F2xx\src\stm32f2xx_gpio.o
 .text.GPIO_DeInit
                0x00000000      0x178 BSP\STM32F2xx\src\stm32f2xx_gpio.o
 .text.GPIO_StructInit
                0x00000000       0x3c BSP\STM32F2xx\src\stm32f2xx_gpio.o
 .text.GPIO_PinLockConfig
                0x00000000       0x44 BSP\STM32F2xx\src\stm32f2xx_gpio.o
 .text.GPIO_ReadInputDataBit
                0x00000000       0x3c BSP\STM32F2xx\src\stm32f2xx_gpio.o
 .text.GPIO_ReadInputData
                0x00000000       0x1c BSP\STM32F2xx\src\stm32f2xx_gpio.o
 .text.GPIO_ReadOutputDataBit
                0x00000000       0x3c BSP\STM32F2xx\src\stm32f2xx_gpio.o
 .text.GPIO_WriteBit
                0x00000000       0x30 BSP\STM32F2xx\src\stm32f2xx_gpio.o
 .text.GPIO_Write
                0x00000000       0x1c BSP\STM32F2xx\src\stm32f2xx_gpio.o
 .text.GPIO_ToggleBits
                0x00000000       0x24 BSP\STM32F2xx\src\stm32f2xx_gpio.o
 .text          0x00000000        0x0 BSP\STM32F2xx\src\stm32f2xx_fsmc.o
 .data          0x00000000        0x0 BSP\STM32F2xx\src\stm32f2xx_fsmc.o
 .bss           0x00000000        0x0 BSP\STM32F2xx\src\stm32f2xx_fsmc.o
 .text.FSMC_NORSRAMDeInit
                0x00000000       0x5c BSP\STM32F2xx\src\stm32f2xx_fsmc.o
 .text.FSMC_NORSRAMInit
                0x00000000      0x150 BSP\STM32F2xx\src\stm32f2xx_fsmc.o
 .text.FSMC_NORSRAMStructInit
                0x00000000      0x108 BSP\STM32F2xx\src\stm32f2xx_fsmc.o
 .text.FSMC_NORSRAMCmd
                0x00000000       0x58 BSP\STM32F2xx\src\stm32f2xx_fsmc.o
 .text.FSMC_NANDDeInit
                0x00000000       0x8c BSP\STM32F2xx\src\stm32f2xx_fsmc.o
 .text.FSMC_NANDInit
                0x00000000      0x100 BSP\STM32F2xx\src\stm32f2xx_fsmc.o
 .text.FSMC_NANDStructInit
                0x00000000       0x9c BSP\STM32F2xx\src\stm32f2xx_fsmc.o
 .text.FSMC_NANDCmd
                0x00000000       0xa0 BSP\STM32F2xx\src\stm32f2xx_fsmc.o
 .text.FSMC_NANDECCCmd
                0x00000000       0xa0 BSP\STM32F2xx\src\stm32f2xx_fsmc.o
 .text.FSMC_GetECC
                0x00000000       0x3c BSP\STM32F2xx\src\stm32f2xx_fsmc.o
 .text.FSMC_PCCARDDeInit
                0x00000000       0x50 BSP\STM32F2xx\src\stm32f2xx_fsmc.o
 .text.FSMC_PCCARDInit
                0x00000000       0xd4 BSP\STM32F2xx\src\stm32f2xx_fsmc.o
 .text.FSMC_PCCARDStructInit
                0x00000000       0xa4 BSP\STM32F2xx\src\stm32f2xx_fsmc.o
 .text.FSMC_PCCARDCmd
                0x00000000       0x54 BSP\STM32F2xx\src\stm32f2xx_fsmc.o
 .text.FSMC_ITConfig
                0x00000000       0xec BSP\STM32F2xx\src\stm32f2xx_fsmc.o
 .text.FSMC_GetFlagStatus
                0x00000000       0x74 BSP\STM32F2xx\src\stm32f2xx_fsmc.o
 .text.FSMC_ClearFlag
                0x00000000       0x80 BSP\STM32F2xx\src\stm32f2xx_fsmc.o
 .text.FSMC_GetITStatus
                0x00000000       0x94 BSP\STM32F2xx\src\stm32f2xx_fsmc.o
 .text.FSMC_ClearITPendingBit
                0x00000000       0x8c BSP\STM32F2xx\src\stm32f2xx_fsmc.o
 .text          0x00000000        0x0 BSP\STM32F2xx\src\stm32f2xx_flash.o
 .data          0x00000000        0x0 BSP\STM32F2xx\src\stm32f2xx_flash.o
 .bss           0x00000000        0x0 BSP\STM32F2xx\src\stm32f2xx_flash.o
 .text.FLASH_SetLatency
                0x00000000       0x20 BSP\STM32F2xx\src\stm32f2xx_flash.o
 .text.FLASH_PrefetchBufferCmd
                0x00000000       0x4c BSP\STM32F2xx\src\stm32f2xx_flash.o
 .text.FLASH_InstructionCacheCmd
                0x00000000       0x4c BSP\STM32F2xx\src\stm32f2xx_flash.o
 .text.FLASH_DataCacheCmd
                0x00000000       0x4c BSP\STM32F2xx\src\stm32f2xx_flash.o
 .text.FLASH_InstructionCacheReset
                0x00000000       0x24 BSP\STM32F2xx\src\stm32f2xx_flash.o
 .text.FLASH_DataCacheReset
                0x00000000       0x24 BSP\STM32F2xx\src\stm32f2xx_flash.o
 .text.FLASH_Unlock
                0x00000000       0x3c BSP\STM32F2xx\src\stm32f2xx_flash.o
 .text.FLASH_Lock
                0x00000000       0x24 BSP\STM32F2xx\src\stm32f2xx_flash.o
 .text.FLASH_EraseSector
                0x00000000      0x11c BSP\STM32F2xx\src\stm32f2xx_flash.o
 .text.FLASH_EraseAllSectors
                0x00000000       0xe4 BSP\STM32F2xx\src\stm32f2xx_flash.o
 .text.FLASH_ProgramDoubleWord
                0x00000000       0xa0 BSP\STM32F2xx\src\stm32f2xx_flash.o
 .text.FLASH_ProgramWord
                0x00000000       0x98 BSP\STM32F2xx\src\stm32f2xx_flash.o
 .text.FLASH_ProgramHalfWord
                0x00000000       0x9c BSP\STM32F2xx\src\stm32f2xx_flash.o
 .text.FLASH_ProgramByte
                0x00000000       0x98 BSP\STM32F2xx\src\stm32f2xx_flash.o
 .text.FLASH_OB_Unlock
                0x00000000       0x44 BSP\STM32F2xx\src\stm32f2xx_flash.o
 .text.FLASH_OB_Lock
                0x00000000       0x24 BSP\STM32F2xx\src\stm32f2xx_flash.o
 .text.FLASH_OB_WRPConfig
                0x00000000       0x74 BSP\STM32F2xx\src\stm32f2xx_flash.o
 .text.FLASH_OB_RDPConfig
                0x00000000       0x34 BSP\STM32F2xx\src\stm32f2xx_flash.o
 .text.FLASH_OB_UserConfig
                0x00000000       0x64 BSP\STM32F2xx\src\stm32f2xx_flash.o
 .text.FLASH_OB_BORConfig
                0x00000000       0x4c BSP\STM32F2xx\src\stm32f2xx_flash.o
 .text.FLASH_OB_Launch
                0x00000000       0x3c BSP\STM32F2xx\src\stm32f2xx_flash.o
 .text.FLASH_OB_GetUser
                0x00000000       0x1c BSP\STM32F2xx\src\stm32f2xx_flash.o
 .text.FLASH_OB_GetWRP
                0x00000000       0x18 BSP\STM32F2xx\src\stm32f2xx_flash.o
 .text.FLASH_OB_GetRDP
                0x00000000       0x38 BSP\STM32F2xx\src\stm32f2xx_flash.o
 .text.FLASH_OB_GetBOR
                0x00000000       0x20 BSP\STM32F2xx\src\stm32f2xx_flash.o
 .text.FLASH_ITConfig
                0x00000000       0x58 BSP\STM32F2xx\src\stm32f2xx_flash.o
 .text.FLASH_GetFlagStatus
                0x00000000       0x40 BSP\STM32F2xx\src\stm32f2xx_flash.o
 .text.FLASH_ClearFlag
                0x00000000       0x20 BSP\STM32F2xx\src\stm32f2xx_flash.o
 .text.FLASH_GetStatus
                0x00000000       0x88 BSP\STM32F2xx\src\stm32f2xx_flash.o
 .text.FLASH_WaitForLastOperation
                0x00000000       0x34 BSP\STM32F2xx\src\stm32f2xx_flash.o
 .text          0x00000000        0x0 BSP\STM32F2xx\src\stm32f2xx_exti.o
 .data          0x00000000        0x0 BSP\STM32F2xx\src\stm32f2xx_exti.o
 .bss           0x00000000        0x0 BSP\STM32F2xx\src\stm32f2xx_exti.o
 .text.EXTI_DeInit
                0x00000000       0x54 BSP\STM32F2xx\src\stm32f2xx_exti.o
 .text.EXTI_Init
                0x00000000      0x144 BSP\STM32F2xx\src\stm32f2xx_exti.o
 .text.EXTI_StructInit
                0x00000000       0x34 BSP\STM32F2xx\src\stm32f2xx_exti.o
 .text.EXTI_GenerateSWInterrupt
                0x00000000       0x2c BSP\STM32F2xx\src\stm32f2xx_exti.o
 .text.EXTI_GetFlagStatus
                0x00000000       0x40 BSP\STM32F2xx\src\stm32f2xx_exti.o
 .text.EXTI_ClearFlag
                0x00000000       0x20 BSP\STM32F2xx\src\stm32f2xx_exti.o
 .text.EXTI_GetITStatus
                0x00000000       0x5c BSP\STM32F2xx\src\stm32f2xx_exti.o
 .text.EXTI_ClearITPendingBit
                0x00000000       0x20 BSP\STM32F2xx\src\stm32f2xx_exti.o
 .text          0x00000000        0x0 BSP\STM32F2xx\src\stm32f2xx_dma.o
 .data          0x00000000        0x0 BSP\STM32F2xx\src\stm32f2xx_dma.o
 .bss           0x00000000        0x0 BSP\STM32F2xx\src\stm32f2xx_dma.o
 .text.DMA_DeInit
                0x00000000      0x244 BSP\STM32F2xx\src\stm32f2xx_dma.o
 .text.DMA_Init
                0x00000000       0xb0 BSP\STM32F2xx\src\stm32f2xx_dma.o
 .text.DMA_StructInit
                0x00000000       0x8c BSP\STM32F2xx\src\stm32f2xx_dma.o
 .text.DMA_Cmd  0x00000000       0x38 BSP\STM32F2xx\src\stm32f2xx_dma.o
 .text.DMA_PeriphIncOffsetSizeConfig
                0x00000000       0x34 BSP\STM32F2xx\src\stm32f2xx_dma.o
 .text.DMA_FlowControllerConfig
                0x00000000       0x34 BSP\STM32F2xx\src\stm32f2xx_dma.o
 .text.DMA_SetCurrDataCounter
                0x00000000       0x1c BSP\STM32F2xx\src\stm32f2xx_dma.o
 .text.DMA_GetCurrDataCounter
                0x00000000       0x1c BSP\STM32F2xx\src\stm32f2xx_dma.o
 .text.DMA_DoubleBufferModeConfig
                0x00000000       0x3c BSP\STM32F2xx\src\stm32f2xx_dma.o
 .text.DMA_DoubleBufferModeCmd
                0x00000000       0x38 BSP\STM32F2xx\src\stm32f2xx_dma.o
 .text.DMA_MemoryTargetConfig
                0x00000000       0x2c BSP\STM32F2xx\src\stm32f2xx_dma.o
 .text.DMA_GetCurrentMemoryTarget
                0x00000000       0x38 BSP\STM32F2xx\src\stm32f2xx_dma.o
 .text.DMA_GetCmdStatus
                0x00000000       0x38 BSP\STM32F2xx\src\stm32f2xx_dma.o
 .text.DMA_GetFIFOStatus
                0x00000000       0x28 BSP\STM32F2xx\src\stm32f2xx_dma.o
 .text.DMA_GetFlagStatus
                0x00000000       0x88 BSP\STM32F2xx\src\stm32f2xx_dma.o
 .text.DMA_ClearFlag
                0x00000000       0x64 BSP\STM32F2xx\src\stm32f2xx_dma.o
 .text.DMA_ITConfig
                0x00000000       0x78 BSP\STM32F2xx\src\stm32f2xx_dma.o
 .text.DMA_GetITStatus
                0x00000000       0xc8 BSP\STM32F2xx\src\stm32f2xx_dma.o
 .text.DMA_ClearITPendingBit
                0x00000000       0x64 BSP\STM32F2xx\src\stm32f2xx_dma.o
 .text          0x00000000        0x0 BSP\STM32F2xx\src\stm32f2xx_dcmi.o
 .data          0x00000000        0x0 BSP\STM32F2xx\src\stm32f2xx_dcmi.o
 .bss           0x00000000        0x0 BSP\STM32F2xx\src\stm32f2xx_dcmi.o
 .text.DCMI_DeInit
                0x00000000       0x6c BSP\STM32F2xx\src\stm32f2xx_dcmi.o
 .text.DCMI_Init
                0x00000000       0x94 BSP\STM32F2xx\src\stm32f2xx_dcmi.o
 .text.DCMI_StructInit
                0x00000000       0x4c BSP\STM32F2xx\src\stm32f2xx_dcmi.o
 .text.DCMI_CROPConfig
                0x00000000       0x48 BSP\STM32F2xx\src\stm32f2xx_dcmi.o
 .text.DCMI_CROPCmd
                0x00000000       0x4c BSP\STM32F2xx\src\stm32f2xx_dcmi.o
 .text.DCMI_SetEmbeddedSynchroCodes
                0x00000000       0x40 BSP\STM32F2xx\src\stm32f2xx_dcmi.o
 .text.DCMI_JPEGCmd
                0x00000000       0x4c BSP\STM32F2xx\src\stm32f2xx_dcmi.o
 .text.DCMI_Cmd
                0x00000000       0x4c BSP\STM32F2xx\src\stm32f2xx_dcmi.o
 .text.DCMI_CaptureCmd
                0x00000000       0x4c BSP\STM32F2xx\src\stm32f2xx_dcmi.o
 .text.DCMI_ReadData
                0x00000000       0x18 BSP\STM32F2xx\src\stm32f2xx_dcmi.o
 .text.DCMI_ITConfig
                0x00000000       0x5c BSP\STM32F2xx\src\stm32f2xx_dcmi.o
 .text.DCMI_GetFlagStatus
                0x00000000       0x7c BSP\STM32F2xx\src\stm32f2xx_dcmi.o
 .text.DCMI_ClearFlag
                0x00000000       0x20 BSP\STM32F2xx\src\stm32f2xx_dcmi.o
 .text.DCMI_GetITStatus
                0x00000000       0x4c BSP\STM32F2xx\src\stm32f2xx_dcmi.o
 .text.DCMI_ClearITPendingBit
                0x00000000       0x20 BSP\STM32F2xx\src\stm32f2xx_dcmi.o
 .text          0x00000000        0x0 BSP\STM32F2xx\src\stm32f2xx_dbgmcu.o
 .data          0x00000000        0x0 BSP\STM32F2xx\src\stm32f2xx_dbgmcu.o
 .bss           0x00000000        0x0 BSP\STM32F2xx\src\stm32f2xx_dbgmcu.o
 .text.DBGMCU_GetREVID
                0x00000000       0x1c BSP\STM32F2xx\src\stm32f2xx_dbgmcu.o
 .text.DBGMCU_GetDEVID
                0x00000000       0x20 BSP\STM32F2xx\src\stm32f2xx_dbgmcu.o
 .text.DBGMCU_Config
                0x00000000       0x58 BSP\STM32F2xx\src\stm32f2xx_dbgmcu.o
 .text.DBGMCU_APB1PeriphConfig
                0x00000000       0x58 BSP\STM32F2xx\src\stm32f2xx_dbgmcu.o
 .text.DBGMCU_APB2PeriphConfig
                0x00000000       0x58 BSP\STM32F2xx\src\stm32f2xx_dbgmcu.o
 .text          0x00000000        0x0 BSP\STM32F2xx\src\stm32f2xx_dac.o
 .data          0x00000000        0x0 BSP\STM32F2xx\src\stm32f2xx_dac.o
 .bss           0x00000000        0x0 BSP\STM32F2xx\src\stm32f2xx_dac.o
 .text.DAC_DeInit
                0x00000000       0x20 BSP\STM32F2xx\src\stm32f2xx_dac.o
 .text.DAC_Init
                0x00000000       0x74 BSP\STM32F2xx\src\stm32f2xx_dac.o
 .text.DAC_StructInit
                0x00000000       0x34 BSP\STM32F2xx\src\stm32f2xx_dac.o
 .text.DAC_Cmd  0x00000000       0x68 BSP\STM32F2xx\src\stm32f2xx_dac.o
 .text.DAC_SoftwareTriggerCmd
                0x00000000       0x70 BSP\STM32F2xx\src\stm32f2xx_dac.o
 .text.DAC_DualSoftwareTriggerCmd
                0x00000000       0x4c BSP\STM32F2xx\src\stm32f2xx_dac.o
 .text.DAC_WaveGenerationCmd
                0x00000000       0x64 BSP\STM32F2xx\src\stm32f2xx_dac.o
 .text.DAC_SetChannel1Data
                0x00000000       0x38 BSP\STM32F2xx\src\stm32f2xx_dac.o
 .text.DAC_SetChannel2Data
                0x00000000       0x38 BSP\STM32F2xx\src\stm32f2xx_dac.o
 .text.DAC_SetDualChannelData
                0x00000000       0x64 BSP\STM32F2xx\src\stm32f2xx_dac.o
 .text.DAC_GetDataOutputValue
                0x00000000       0x3c BSP\STM32F2xx\src\stm32f2xx_dac.o
 .text.DAC_DMACmd
                0x00000000       0x68 BSP\STM32F2xx\src\stm32f2xx_dac.o
 .text.DAC_ITConfig
                0x00000000       0x64 BSP\STM32F2xx\src\stm32f2xx_dac.o
 .text.DAC_GetFlagStatus
                0x00000000       0x48 BSP\STM32F2xx\src\stm32f2xx_dac.o
 .text.DAC_ClearFlag
                0x00000000       0x28 BSP\STM32F2xx\src\stm32f2xx_dac.o
 .text.DAC_GetITStatus
                0x00000000       0x6c BSP\STM32F2xx\src\stm32f2xx_dac.o
 .text.DAC_ClearITPendingBit
                0x00000000       0x28 BSP\STM32F2xx\src\stm32f2xx_dac.o
 .text          0x00000000        0x0 BSP\STM32F2xx\src\stm32f2xx_cryp_tdes.o
 .data          0x00000000        0x0 BSP\STM32F2xx\src\stm32f2xx_cryp_tdes.o
 .bss           0x00000000        0x0 BSP\STM32F2xx\src\stm32f2xx_cryp_tdes.o
 .text.CRYP_TDES_ECB
                0x00000000      0x1d0 BSP\STM32F2xx\src\stm32f2xx_cryp_tdes.o
 .text.CRYP_TDES_CBC
                0x00000000      0x268 BSP\STM32F2xx\src\stm32f2xx_cryp_tdes.o
 .text          0x00000000        0x0 BSP\STM32F2xx\src\stm32f2xx_cryp_des.o
 .data          0x00000000        0x0 BSP\STM32F2xx\src\stm32f2xx_cryp_des.o
 .bss           0x00000000        0x0 BSP\STM32F2xx\src\stm32f2xx_cryp_des.o
 .text.CRYP_DES_ECB
                0x00000000      0x160 BSP\STM32F2xx\src\stm32f2xx_cryp_des.o
 .text.CRYP_DES_CBC
                0x00000000      0x1b0 BSP\STM32F2xx\src\stm32f2xx_cryp_des.o
 .text          0x00000000        0x0 BSP\STM32F2xx\src\stm32f2xx_cryp_aes.o
 .data          0x00000000        0x0 BSP\STM32F2xx\src\stm32f2xx_cryp_aes.o
 .bss           0x00000000        0x0 BSP\STM32F2xx\src\stm32f2xx_cryp_aes.o
 .text.CRYP_AES_ECB
                0x00000000      0x4b0 BSP\STM32F2xx\src\stm32f2xx_cryp_aes.o
 .text.CRYP_AES_CBC
                0x00000000      0x5cc BSP\STM32F2xx\src\stm32f2xx_cryp_aes.o
 .text.CRYP_AES_CTR
                0x00000000      0x550 BSP\STM32F2xx\src\stm32f2xx_cryp_aes.o
 .text          0x00000000        0x0 BSP\STM32F2xx\src\stm32f2xx_cryp.o
 .data          0x00000000        0x0 BSP\STM32F2xx\src\stm32f2xx_cryp.o
 .bss           0x00000000        0x0 BSP\STM32F2xx\src\stm32f2xx_cryp.o
 .text.CRYP_DeInit
                0x00000000       0x20 BSP\STM32F2xx\src\stm32f2xx_cryp.o
 .text.CRYP_Init
                0x00000000      0x104 BSP\STM32F2xx\src\stm32f2xx_cryp.o
 .text.CRYP_StructInit
                0x00000000       0x34 BSP\STM32F2xx\src\stm32f2xx_cryp.o
 .text.CRYP_KeyInit
                0x00000000       0x84 BSP\STM32F2xx\src\stm32f2xx_cryp.o
 .text.CRYP_KeyStructInit
                0x00000000       0x54 BSP\STM32F2xx\src\stm32f2xx_cryp.o
 .text.CRYP_IVInit
                0x00000000       0x4c BSP\STM32F2xx\src\stm32f2xx_cryp.o
 .text.CRYP_IVStructInit
                0x00000000       0x34 BSP\STM32F2xx\src\stm32f2xx_cryp.o
 .text.CRYP_FIFOFlush
                0x00000000       0x24 BSP\STM32F2xx\src\stm32f2xx_cryp.o
 .text.CRYP_Cmd
                0x00000000       0x4c BSP\STM32F2xx\src\stm32f2xx_cryp.o
 .text.CRYP_DataIn
                0x00000000       0x20 BSP\STM32F2xx\src\stm32f2xx_cryp.o
 .text.CRYP_DataOut
                0x00000000       0x18 BSP\STM32F2xx\src\stm32f2xx_cryp.o
 .text.CRYP_SaveContext
                0x00000000      0x170 BSP\STM32F2xx\src\stm32f2xx_cryp.o
 .text.CRYP_RestoreContext
                0x00000000       0xe0 BSP\STM32F2xx\src\stm32f2xx_cryp.o
 .text.CRYP_DMACmd
                0x00000000       0x5c BSP\STM32F2xx\src\stm32f2xx_cryp.o
 .text.CRYP_ITConfig
                0x00000000       0x5c BSP\STM32F2xx\src\stm32f2xx_cryp.o
 .text.CRYP_GetITStatus
                0x00000000       0x40 BSP\STM32F2xx\src\stm32f2xx_cryp.o
 .text.CRYP_GetFlagStatus
                0x00000000       0x60 BSP\STM32F2xx\src\stm32f2xx_cryp.o
 .text          0x00000000        0x0 BSP\STM32F2xx\src\stm32f2xx_crc.o
 .data          0x00000000        0x0 BSP\STM32F2xx\src\stm32f2xx_crc.o
 .bss           0x00000000        0x0 BSP\STM32F2xx\src\stm32f2xx_crc.o
 .text.CRC_ResetDR
                0x00000000       0x18 BSP\STM32F2xx\src\stm32f2xx_crc.o
 .text.CRC_CalcCRC
                0x00000000       0x2c BSP\STM32F2xx\src\stm32f2xx_crc.o
 .text.CRC_CalcBlockCRC
                0x00000000       0x54 BSP\STM32F2xx\src\stm32f2xx_crc.o
 .text.CRC_GetCRC
                0x00000000       0x18 BSP\STM32F2xx\src\stm32f2xx_crc.o
 .text.CRC_SetIDRegister
                0x00000000       0x20 BSP\STM32F2xx\src\stm32f2xx_crc.o
 .text.CRC_GetIDRegister
                0x00000000       0x18 BSP\STM32F2xx\src\stm32f2xx_crc.o
 .text          0x00000000        0x0 BSP\STM32F2xx\src\stm32f2xx_can.o
 .data          0x00000000        0x0 BSP\STM32F2xx\src\stm32f2xx_can.o
 .bss           0x00000000        0x0 BSP\STM32F2xx\src\stm32f2xx_can.o
 .text.CAN_DeInit
                0x00000000       0x50 BSP\STM32F2xx\src\stm32f2xx_can.o
 .text.CAN_Init
                0x00000000      0x1c0 BSP\STM32F2xx\src\stm32f2xx_can.o
 .text.CAN_FilterInit
                0x00000000      0x220 BSP\STM32F2xx\src\stm32f2xx_can.o
 .text.CAN_StructInit
                0x00000000       0x6c BSP\STM32F2xx\src\stm32f2xx_can.o
 .text.CAN_SlaveStartBank
                0x00000000       0x90 BSP\STM32F2xx\src\stm32f2xx_can.o
 .text.CAN_DBGFreeze
                0x00000000       0x38 BSP\STM32F2xx\src\stm32f2xx_can.o
 .text.CAN_TTComModeCmd
                0x00000000       0x98 BSP\STM32F2xx\src\stm32f2xx_can.o
 .text.CAN_Transmit
                0x00000000      0x1e4 BSP\STM32F2xx\src\stm32f2xx_can.o
 .text.CAN_TransmitStatus
                0x00000000      0x114 BSP\STM32F2xx\src\stm32f2xx_can.o
 .text.CAN_CancelTransmit
                0x00000000       0x50 BSP\STM32F2xx\src\stm32f2xx_can.o
 .text.CAN_Receive
                0x00000000      0x1a8 BSP\STM32F2xx\src\stm32f2xx_can.o
 .text.CAN_FIFORelease
                0x00000000       0x38 BSP\STM32F2xx\src\stm32f2xx_can.o
 .text.CAN_MessagePending
                0x00000000       0x50 BSP\STM32F2xx\src\stm32f2xx_can.o
 .text.CAN_OperatingModeRequest
                0x00000000      0x114 BSP\STM32F2xx\src\stm32f2xx_can.o
 .text.CAN_Sleep
                0x00000000       0x40 BSP\STM32F2xx\src\stm32f2xx_can.o
 .text.CAN_WakeUp
                0x00000000       0x5c BSP\STM32F2xx\src\stm32f2xx_can.o
 .text.CAN_GetLastErrorCode
                0x00000000       0x28 BSP\STM32F2xx\src\stm32f2xx_can.o
 .text.CAN_GetReceiveErrorCounter
                0x00000000       0x28 BSP\STM32F2xx\src\stm32f2xx_can.o
 .text.CAN_GetLSBTransmitErrorCounter
                0x00000000       0x2c BSP\STM32F2xx\src\stm32f2xx_can.o
 .text.CAN_ITConfig
                0x00000000       0x40 BSP\STM32F2xx\src\stm32f2xx_can.o
 .text.CAN_GetFlagStatus
                0x00000000      0x104 BSP\STM32F2xx\src\stm32f2xx_can.o
 .text.CAN_ClearFlag
                0x00000000       0x7c BSP\STM32F2xx\src\stm32f2xx_can.o
 .text.CAN_GetITStatus
                0x00000000      0x1bc BSP\STM32F2xx\src\stm32f2xx_can.o
 .text.CAN_ClearITPendingBit
                0x00000000       0xfc BSP\STM32F2xx\src\stm32f2xx_can.o
 .text.CheckITStatus
                0x00000000       0x38 BSP\STM32F2xx\src\stm32f2xx_can.o
 .text          0x00000000        0x0 BSP\STM32F2xx\src\stm32f2xx_adc.o
 .data          0x00000000        0x0 BSP\STM32F2xx\src\stm32f2xx_adc.o
 .bss           0x00000000        0x0 BSP\STM32F2xx\src\stm32f2xx_adc.o
 .text.ADC_DeInit
                0x00000000       0x20 BSP\STM32F2xx\src\stm32f2xx_adc.o
 .text.ADC_Init
                0x00000000       0xb8 BSP\STM32F2xx\src\stm32f2xx_adc.o
 .text.ADC_StructInit
                0x00000000       0x4c BSP\STM32F2xx\src\stm32f2xx_adc.o
 .text.ADC_CommonInit
                0x00000000       0x5c BSP\STM32F2xx\src\stm32f2xx_adc.o
 .text.ADC_CommonStructInit
                0x00000000       0x34 BSP\STM32F2xx\src\stm32f2xx_adc.o
 .text.ADC_Cmd  0x00000000       0x38 BSP\STM32F2xx\src\stm32f2xx_adc.o
 .text.ADC_AnalogWatchdogCmd
                0x00000000       0x3c BSP\STM32F2xx\src\stm32f2xx_adc.o
 .text.ADC_AnalogWatchdogThresholdsConfig
                0x00000000       0x28 BSP\STM32F2xx\src\stm32f2xx_adc.o
 .text.ADC_AnalogWatchdogSingleChannelConfig
                0x00000000       0x38 BSP\STM32F2xx\src\stm32f2xx_adc.o
 .text.ADC_TempSensorVrefintCmd
                0x00000000       0x4c BSP\STM32F2xx\src\stm32f2xx_adc.o
 .text.ADC_VBATCmd
                0x00000000       0x4c BSP\STM32F2xx\src\stm32f2xx_adc.o
 .text.ADC_RegularChannelConfig
                0x00000000      0x1bc BSP\STM32F2xx\src\stm32f2xx_adc.o
 .text.ADC_SoftwareStartConv
                0x00000000       0x20 BSP\STM32F2xx\src\stm32f2xx_adc.o
 .text.ADC_GetSoftwareStartConvStatus
                0x00000000       0x38 BSP\STM32F2xx\src\stm32f2xx_adc.o
 .text.ADC_EOCOnEachRegularChannelCmd
                0x00000000       0x38 BSP\STM32F2xx\src\stm32f2xx_adc.o
 .text.ADC_ContinuousModeCmd
                0x00000000       0x38 BSP\STM32F2xx\src\stm32f2xx_adc.o
 .text.ADC_DiscModeChannelCountConfig
                0x00000000       0x4c BSP\STM32F2xx\src\stm32f2xx_adc.o
 .text.ADC_DiscModeCmd
                0x00000000       0x38 BSP\STM32F2xx\src\stm32f2xx_adc.o
 .text.ADC_GetConversionValue
                0x00000000       0x1c BSP\STM32F2xx\src\stm32f2xx_adc.o
 .text.ADC_GetMultiModeConversionValue
                0x00000000       0x18 BSP\STM32F2xx\src\stm32f2xx_adc.o
 .text.ADC_DMACmd
                0x00000000       0x38 BSP\STM32F2xx\src\stm32f2xx_adc.o
 .text.ADC_DMARequestAfterLastTransferCmd
                0x00000000       0x38 BSP\STM32F2xx\src\stm32f2xx_adc.o
 .text.ADC_MultiModeDMARequestAfterLastTransferCmd
                0x00000000       0x4c BSP\STM32F2xx\src\stm32f2xx_adc.o
 .text.ADC_InjectedChannelConfig
                0x00000000      0x144 BSP\STM32F2xx\src\stm32f2xx_adc.o
 .text.ADC_InjectedSequencerLengthConfig
                0x00000000       0x4c BSP\STM32F2xx\src\stm32f2xx_adc.o
 .text.ADC_SetInjectedOffset
                0x00000000       0x34 BSP\STM32F2xx\src\stm32f2xx_adc.o
 .text.ADC_ExternalTrigInjectedConvConfig
                0x00000000       0x38 BSP\STM32F2xx\src\stm32f2xx_adc.o
 .text.ADC_ExternalTrigInjectedConvEdgeConfig
                0x00000000       0x38 BSP\STM32F2xx\src\stm32f2xx_adc.o
 .text.ADC_SoftwareStartInjectedConv
                0x00000000       0x20 BSP\STM32F2xx\src\stm32f2xx_adc.o
 .text.ADC_GetSoftwareStartInjectedConvCmdStatus
                0x00000000       0x38 BSP\STM32F2xx\src\stm32f2xx_adc.o
 .text.ADC_AutoInjectedConvCmd
                0x00000000       0x38 BSP\STM32F2xx\src\stm32f2xx_adc.o
 .text.ADC_InjectedDiscModeCmd
                0x00000000       0x38 BSP\STM32F2xx\src\stm32f2xx_adc.o
 .text.ADC_GetInjectedConversionValue
                0x00000000       0x34 BSP\STM32F2xx\src\stm32f2xx_adc.o
 .text.ADC_ITConfig
                0x00000000       0x5c BSP\STM32F2xx\src\stm32f2xx_adc.o
 .text.ADC_GetFlagStatus
                0x00000000       0x3c BSP\STM32F2xx\src\stm32f2xx_adc.o
 .text.ADC_ClearFlag
                0x00000000       0x20 BSP\STM32F2xx\src\stm32f2xx_adc.o
 .text.ADC_GetITStatus
                0x00000000       0x70 BSP\STM32F2xx\src\stm32f2xx_adc.o
 .text.ADC_ClearITPendingBit
                0x00000000       0x30 BSP\STM32F2xx\src\stm32f2xx_adc.o
 .text          0x00000000        0x0 BSP\STM32F2xx\src\misc.o
 .data          0x00000000        0x0 BSP\STM32F2xx\src\misc.o
 .bss           0x00000000        0x0 BSP\STM32F2xx\src\misc.o
 .text.NVIC_PriorityGroupConfig
                0x00000000       0x28 BSP\STM32F2xx\src\misc.o
 .text.NVIC_Init
                0x00000000       0xe4 BSP\STM32F2xx\src\misc.o
 .text.NVIC_SetVectorTable
                0x00000000       0x2c BSP\STM32F2xx\src\misc.o
 .text.NVIC_SystemLPConfig
                0x00000000       0x58 BSP\STM32F2xx\src\misc.o
 .text.SysTick_CLKSourceConfig
                0x00000000       0x4c BSP\STM32F2xx\src\misc.o
 .text          0x00000000        0x0 BSP\OS\bsp_os.o
 .data          0x00000000        0x0 BSP\OS\bsp_os.o
 .bss           0x00000000        0x0 BSP\OS\bsp_os.o
 .text.BSP_OS_TimeDlyMs
                0x00000000       0x64 BSP\OS\bsp_os.o
 .text          0x00000000        0x0 BSP\CMSIS\Device_Support\system_stm32f2xx.o
 .data          0x00000000        0x0 BSP\CMSIS\Device_Support\system_stm32f2xx.o
 .bss           0x00000000        0x0 BSP\CMSIS\Device_Support\system_stm32f2xx.o
 .data.SystemCoreClock
                0x00000000        0x4 BSP\CMSIS\Device_Support\system_stm32f2xx.o
 .data.AHBPrescTable
                0x00000000       0x10 BSP\CMSIS\Device_Support\system_stm32f2xx.o
 .text.SystemCoreClockUpdate
                0x00000000      0x174 BSP\CMSIS\Device_Support\system_stm32f2xx.o
 .text          0x00000000        0x0 APP\app_hooks.o
 .data          0x00000000        0x0 APP\app_hooks.o
 .bss           0x00000000        0x0 APP\app_hooks.o
 .text          0x00000000        0x0 APP\app.o
 .data          0x00000000        0x0 APP\app.o
 .bss           0x00000000        0x0 APP\app.o
 .text          0x00000000        0x0 c:/program files (x86)/atollic/truestudio for arm pro 3.2.0/armtools/bin/../lib/gcc/arm-atollic-eabi/4.6.2/../../../../arm-atollic-eabi/lib/thumb/softfp/armv7e-m/fpv4-sp-d16\libc.a(lib_a-init.o)
 .data          0x00000000        0x0 c:/program files (x86)/atollic/truestudio for arm pro 3.2.0/armtools/bin/../lib/gcc/arm-atollic-eabi/4.6.2/../../../../arm-atollic-eabi/lib/thumb/softfp/armv7e-m/fpv4-sp-d16\libc.a(lib_a-init.o)
 .bss           0x00000000        0x0 c:/program files (x86)/atollic/truestudio for arm pro 3.2.0/armtools/bin/../lib/gcc/arm-atollic-eabi/4.6.2/../../../../arm-atollic-eabi/lib/thumb/softfp/armv7e-m/fpv4-sp-d16\libc.a(lib_a-init.o)
 .text          0x00000000        0x0 c:/program files (x86)/atollic/truestudio for arm pro 3.2.0/armtools/bin/../lib/gcc/arm-atollic-eabi/4.6.2/../../../../arm-atollic-eabi/lib/thumb/softfp/armv7e-m/fpv4-sp-d16\libc.a(lib_a-vsnprintf.o)
 .data          0x00000000        0x0 c:/program files (x86)/atollic/truestudio for arm pro 3.2.0/armtools/bin/../lib/gcc/arm-atollic-eabi/4.6.2/../../../../arm-atollic-eabi/lib/thumb/softfp/armv7e-m/fpv4-sp-d16\libc.a(lib_a-vsnprintf.o)
 .bss           0x00000000        0x0 c:/program files (x86)/atollic/truestudio for arm pro 3.2.0/armtools/bin/../lib/gcc/arm-atollic-eabi/4.6.2/../../../../arm-atollic-eabi/lib/thumb/softfp/armv7e-m/fpv4-sp-d16\libc.a(lib_a-vsnprintf.o)
 .text          0x00000000        0x0 c:/program files (x86)/atollic/truestudio for arm pro 3.2.0/armtools/bin/../lib/gcc/arm-atollic-eabi/4.6.2/../../../../arm-atollic-eabi/lib/thumb/softfp/armv7e-m/fpv4-sp-d16\libc.a(lib_a-impure.o)
 .data          0x00000000        0x0 c:/program files (x86)/atollic/truestudio for arm pro 3.2.0/armtools/bin/../lib/gcc/arm-atollic-eabi/4.6.2/../../../../arm-atollic-eabi/lib/thumb/softfp/armv7e-m/fpv4-sp-d16\libc.a(lib_a-impure.o)
 .bss           0x00000000        0x0 c:/program files (x86)/atollic/truestudio for arm pro 3.2.0/armtools/bin/../lib/gcc/arm-atollic-eabi/4.6.2/../../../../arm-atollic-eabi/lib/thumb/softfp/armv7e-m/fpv4-sp-d16\libc.a(lib_a-impure.o)
 .rodata._global_impure_ptr
                0x00000000        0x4 c:/program files (x86)/atollic/truestudio for arm pro 3.2.0/armtools/bin/../lib/gcc/arm-atollic-eabi/4.6.2/../../../../arm-atollic-eabi/lib/thumb/softfp/armv7e-m/fpv4-sp-d16\libc.a(lib_a-impure.o)
 .text          0x00000000        0x0 c:/program files (x86)/atollic/truestudio for arm pro 3.2.0/armtools/bin/../lib/gcc/arm-atollic-eabi/4.6.2/../../../../arm-atollic-eabi/lib/thumb/softfp/armv7e-m/fpv4-sp-d16\libc.a(lib_a-svfprintf.o)
 .data          0x00000000        0x0 c:/program files (x86)/atollic/truestudio for arm pro 3.2.0/armtools/bin/../lib/gcc/arm-atollic-eabi/4.6.2/../../../../arm-atollic-eabi/lib/thumb/softfp/armv7e-m/fpv4-sp-d16\libc.a(lib_a-svfprintf.o)
 .bss           0x00000000        0x0 c:/program files (x86)/atollic/truestudio for arm pro 3.2.0/armtools/bin/../lib/gcc/arm-atollic-eabi/4.6.2/../../../../arm-atollic-eabi/lib/thumb/softfp/armv7e-m/fpv4-sp-d16\libc.a(lib_a-svfprintf.o)
 .text          0x00000000        0x0 c:/program files (x86)/atollic/truestudio for arm pro 3.2.0/armtools/bin/../lib/gcc/arm-atollic-eabi/4.6.2/../../../../arm-atollic-eabi/lib/thumb/softfp/armv7e-m/fpv4-sp-d16\libc.a(lib_a-dtoa.o)
 .data          0x00000000        0x0 c:/program files (x86)/atollic/truestudio for arm pro 3.2.0/armtools/bin/../lib/gcc/arm-atollic-eabi/4.6.2/../../../../arm-atollic-eabi/lib/thumb/softfp/armv7e-m/fpv4-sp-d16\libc.a(lib_a-dtoa.o)
 .bss           0x00000000        0x0 c:/program files (x86)/atollic/truestudio for arm pro 3.2.0/armtools/bin/../lib/gcc/arm-atollic-eabi/4.6.2/../../../../arm-atollic-eabi/lib/thumb/softfp/armv7e-m/fpv4-sp-d16\libc.a(lib_a-dtoa.o)
 .text          0x00000000        0x0 c:/program files (x86)/atollic/truestudio for arm pro 3.2.0/armtools/bin/../lib/gcc/arm-atollic-eabi/4.6.2/../../../../arm-atollic-eabi/lib/thumb/softfp/armv7e-m/fpv4-sp-d16\libc.a(lib_a-locale.o)
 .data          0x00000000        0x0 c:/program files (x86)/atollic/truestudio for arm pro 3.2.0/armtools/bin/../lib/gcc/arm-atollic-eabi/4.6.2/../../../../arm-atollic-eabi/lib/thumb/softfp/armv7e-m/fpv4-sp-d16\libc.a(lib_a-locale.o)
 .bss           0x00000000        0x0 c:/program files (x86)/atollic/truestudio for arm pro 3.2.0/armtools/bin/../lib/gcc/arm-atollic-eabi/4.6.2/../../../../arm-atollic-eabi/lib/thumb/softfp/armv7e-m/fpv4-sp-d16\libc.a(lib_a-locale.o)
 .text._setlocale_r
                0x00000000       0x44 c:/program files (x86)/atollic/truestudio for arm pro 3.2.0/armtools/bin/../lib/gcc/arm-atollic-eabi/4.6.2/../../../../arm-atollic-eabi/lib/thumb/softfp/armv7e-m/fpv4-sp-d16\libc.a(lib_a-locale.o)
 .text.__locale_charset
                0x00000000        0x8 c:/program files (x86)/atollic/truestudio for arm pro 3.2.0/armtools/bin/../lib/gcc/arm-atollic-eabi/4.6.2/../../../../arm-atollic-eabi/lib/thumb/softfp/armv7e-m/fpv4-sp-d16\libc.a(lib_a-locale.o)
 .text.__locale_mb_cur_max
                0x00000000        0xc c:/program files (x86)/atollic/truestudio for arm pro 3.2.0/armtools/bin/../lib/gcc/arm-atollic-eabi/4.6.2/../../../../arm-atollic-eabi/lib/thumb/softfp/armv7e-m/fpv4-sp-d16\libc.a(lib_a-locale.o)
 .text.__locale_msgcharset
                0x00000000        0x8 c:/program files (x86)/atollic/truestudio for arm pro 3.2.0/armtools/bin/../lib/gcc/arm-atollic-eabi/4.6.2/../../../../arm-atollic-eabi/lib/thumb/softfp/armv7e-m/fpv4-sp-d16\libc.a(lib_a-locale.o)
 .text.__locale_cjk_lang
                0x00000000        0x4 c:/program files (x86)/atollic/truestudio for arm pro 3.2.0/armtools/bin/../lib/gcc/arm-atollic-eabi/4.6.2/../../../../arm-atollic-eabi/lib/thumb/softfp/armv7e-m/fpv4-sp-d16\libc.a(lib_a-locale.o)
 .text.setlocale
                0x00000000       0x14 c:/program files (x86)/atollic/truestudio for arm pro 3.2.0/armtools/bin/../lib/gcc/arm-atollic-eabi/4.6.2/../../../../arm-atollic-eabi/lib/thumb/softfp/armv7e-m/fpv4-sp-d16\libc.a(lib_a-locale.o)
 .text.localeconv
                0x00000000        0x8 c:/program files (x86)/atollic/truestudio for arm pro 3.2.0/armtools/bin/../lib/gcc/arm-atollic-eabi/4.6.2/../../../../arm-atollic-eabi/lib/thumb/softfp/armv7e-m/fpv4-sp-d16\libc.a(lib_a-locale.o)
 .data.lc_message_charset
                0x00000000       0x20 c:/program files (x86)/atollic/truestudio for arm pro 3.2.0/armtools/bin/../lib/gcc/arm-atollic-eabi/4.6.2/../../../../arm-atollic-eabi/lib/thumb/softfp/armv7e-m/fpv4-sp-d16\libc.a(lib_a-locale.o)
 .bss._PathLocale
                0x00000000        0x4 c:/program files (x86)/atollic/truestudio for arm pro 3.2.0/armtools/bin/../lib/gcc/arm-atollic-eabi/4.6.2/../../../../arm-atollic-eabi/lib/thumb/softfp/armv7e-m/fpv4-sp-d16\libc.a(lib_a-locale.o)
 .bss.__nlocale_changed
                0x00000000        0x4 c:/program files (x86)/atollic/truestudio for arm pro 3.2.0/armtools/bin/../lib/gcc/arm-atollic-eabi/4.6.2/../../../../arm-atollic-eabi/lib/thumb/softfp/armv7e-m/fpv4-sp-d16\libc.a(lib_a-locale.o)
 .bss.__mlocale_changed
                0x00000000        0x4 c:/program files (x86)/atollic/truestudio for arm pro 3.2.0/armtools/bin/../lib/gcc/arm-atollic-eabi/4.6.2/../../../../arm-atollic-eabi/lib/thumb/softfp/armv7e-m/fpv4-sp-d16\libc.a(lib_a-locale.o)
 .data.lc_ctype_charset
                0x00000000       0x20 c:/program files (x86)/atollic/truestudio for arm pro 3.2.0/armtools/bin/../lib/gcc/arm-atollic-eabi/4.6.2/../../../../arm-atollic-eabi/lib/thumb/softfp/armv7e-m/fpv4-sp-d16\libc.a(lib_a-locale.o)
 .data.__mb_cur_max
                0x00000000        0x4 c:/program files (x86)/atollic/truestudio for arm pro 3.2.0/armtools/bin/../lib/gcc/arm-atollic-eabi/4.6.2/../../../../arm-atollic-eabi/lib/thumb/softfp/armv7e-m/fpv4-sp-d16\libc.a(lib_a-locale.o)
 .text          0x00000000        0x0 c:/program files (x86)/atollic/truestudio for arm pro 3.2.0/armtools/bin/../lib/gcc/arm-atollic-eabi/4.6.2/../../../../arm-atollic-eabi/lib/thumb/softfp/armv7e-m/fpv4-sp-d16\libc.a(lib_a-malloc.o)
 .data          0x00000000        0x0 c:/program files (x86)/atollic/truestudio for arm pro 3.2.0/armtools/bin/../lib/gcc/arm-atollic-eabi/4.6.2/../../../../arm-atollic-eabi/lib/thumb/softfp/armv7e-m/fpv4-sp-d16\libc.a(lib_a-malloc.o)
 .bss           0x00000000        0x0 c:/program files (x86)/atollic/truestudio for arm pro 3.2.0/armtools/bin/../lib/gcc/arm-atollic-eabi/4.6.2/../../../../arm-atollic-eabi/lib/thumb/softfp/armv7e-m/fpv4-sp-d16\libc.a(lib_a-malloc.o)
 .text.free     0x00000000       0x10 c:/program files (x86)/atollic/truestudio for arm pro 3.2.0/armtools/bin/../lib/gcc/arm-atollic-eabi/4.6.2/../../../../arm-atollic-eabi/lib/thumb/softfp/armv7e-m/fpv4-sp-d16\libc.a(lib_a-malloc.o)
 .text          0x00000000        0x0 c:/program files (x86)/atollic/truestudio for arm pro 3.2.0/armtools/bin/../lib/gcc/arm-atollic-eabi/4.6.2/../../../../arm-atollic-eabi/lib/thumb/softfp/armv7e-m/fpv4-sp-d16\libc.a(lib_a-mallocr.o)
 .data          0x00000000        0x0 c:/program files (x86)/atollic/truestudio for arm pro 3.2.0/armtools/bin/../lib/gcc/arm-atollic-eabi/4.6.2/../../../../arm-atollic-eabi/lib/thumb/softfp/armv7e-m/fpv4-sp-d16\libc.a(lib_a-mallocr.o)
 .bss           0x00000000        0x0 c:/program files (x86)/atollic/truestudio for arm pro 3.2.0/armtools/bin/../lib/gcc/arm-atollic-eabi/4.6.2/../../../../arm-atollic-eabi/lib/thumb/softfp/armv7e-m/fpv4-sp-d16\libc.a(lib_a-mallocr.o)
 .text          0x00000000        0x0 c:/program files (x86)/atollic/truestudio for arm pro 3.2.0/armtools/bin/../lib/gcc/arm-atollic-eabi/4.6.2/../../../../arm-atollic-eabi/lib/thumb/softfp/armv7e-m/fpv4-sp-d16\libc.a(lib_a-memchr.o)
 .data          0x00000000        0x0 c:/program files (x86)/atollic/truestudio for arm pro 3.2.0/armtools/bin/../lib/gcc/arm-atollic-eabi/4.6.2/../../../../arm-atollic-eabi/lib/thumb/softfp/armv7e-m/fpv4-sp-d16\libc.a(lib_a-memchr.o)
 .bss           0x00000000        0x0 c:/program files (x86)/atollic/truestudio for arm pro 3.2.0/armtools/bin/../lib/gcc/arm-atollic-eabi/4.6.2/../../../../arm-atollic-eabi/lib/thumb/softfp/armv7e-m/fpv4-sp-d16\libc.a(lib_a-memchr.o)
 .text          0x00000000        0x0 c:/program files (x86)/atollic/truestudio for arm pro 3.2.0/armtools/bin/../lib/gcc/arm-atollic-eabi/4.6.2/../../../../arm-atollic-eabi/lib/thumb/softfp/armv7e-m/fpv4-sp-d16\libc.a(lib_a-memcpy.o)
 .data          0x00000000        0x0 c:/program files (x86)/atollic/truestudio for arm pro 3.2.0/armtools/bin/../lib/gcc/arm-atollic-eabi/4.6.2/../../../../arm-atollic-eabi/lib/thumb/softfp/armv7e-m/fpv4-sp-d16\libc.a(lib_a-memcpy.o)
 .bss           0x00000000        0x0 c:/program files (x86)/atollic/truestudio for arm pro 3.2.0/armtools/bin/../lib/gcc/arm-atollic-eabi/4.6.2/../../../../arm-atollic-eabi/lib/thumb/softfp/armv7e-m/fpv4-sp-d16\libc.a(lib_a-memcpy.o)
 .text          0x00000000        0x0 c:/program files (x86)/atollic/truestudio for arm pro 3.2.0/armtools/bin/../lib/gcc/arm-atollic-eabi/4.6.2/../../../../arm-atollic-eabi/lib/thumb/softfp/armv7e-m/fpv4-sp-d16\libc.a(lib_a-mlock.o)
 .data          0x00000000        0x0 c:/program files (x86)/atollic/truestudio for arm pro 3.2.0/armtools/bin/../lib/gcc/arm-atollic-eabi/4.6.2/../../../../arm-atollic-eabi/lib/thumb/softfp/armv7e-m/fpv4-sp-d16\libc.a(lib_a-mlock.o)
 .bss           0x00000000        0x0 c:/program files (x86)/atollic/truestudio for arm pro 3.2.0/armtools/bin/../lib/gcc/arm-atollic-eabi/4.6.2/../../../../arm-atollic-eabi/lib/thumb/softfp/armv7e-m/fpv4-sp-d16\libc.a(lib_a-mlock.o)
 .text          0x00000000        0x0 c:/program files (x86)/atollic/truestudio for arm pro 3.2.0/armtools/bin/../lib/gcc/arm-atollic-eabi/4.6.2/../../../../arm-atollic-eabi/lib/thumb/softfp/armv7e-m/fpv4-sp-d16\libc.a(lib_a-mprec.o)
 .data          0x00000000        0x0 c:/program files (x86)/atollic/truestudio for arm pro 3.2.0/armtools/bin/../lib/gcc/arm-atollic-eabi/4.6.2/../../../../arm-atollic-eabi/lib/thumb/softfp/armv7e-m/fpv4-sp-d16\libc.a(lib_a-mprec.o)
 .bss           0x00000000        0x0 c:/program files (x86)/atollic/truestudio for arm pro 3.2.0/armtools/bin/../lib/gcc/arm-atollic-eabi/4.6.2/../../../../arm-atollic-eabi/lib/thumb/softfp/armv7e-m/fpv4-sp-d16\libc.a(lib_a-mprec.o)
 .text.__s2b    0x00000000       0x7c c:/program files (x86)/atollic/truestudio for arm pro 3.2.0/armtools/bin/../lib/gcc/arm-atollic-eabi/4.6.2/../../../../arm-atollic-eabi/lib/thumb/softfp/armv7e-m/fpv4-sp-d16\libc.a(lib_a-mprec.o)
 .text.__ulp    0x00000000       0x42 c:/program files (x86)/atollic/truestudio for arm pro 3.2.0/armtools/bin/../lib/gcc/arm-atollic-eabi/4.6.2/../../../../arm-atollic-eabi/lib/thumb/softfp/armv7e-m/fpv4-sp-d16\libc.a(lib_a-mprec.o)
 .text.__b2d    0x00000000       0xa6 c:/program files (x86)/atollic/truestudio for arm pro 3.2.0/armtools/bin/../lib/gcc/arm-atollic-eabi/4.6.2/../../../../arm-atollic-eabi/lib/thumb/softfp/armv7e-m/fpv4-sp-d16\libc.a(lib_a-mprec.o)
 .text.__ratio  0x00000000       0x46 c:/program files (x86)/atollic/truestudio for arm pro 3.2.0/armtools/bin/../lib/gcc/arm-atollic-eabi/4.6.2/../../../../arm-atollic-eabi/lib/thumb/softfp/armv7e-m/fpv4-sp-d16\libc.a(lib_a-mprec.o)
 .text._mprec_log10
                0x00000000       0x34 c:/program files (x86)/atollic/truestudio for arm pro 3.2.0/armtools/bin/../lib/gcc/arm-atollic-eabi/4.6.2/../../../../arm-atollic-eabi/lib/thumb/softfp/armv7e-m/fpv4-sp-d16\libc.a(lib_a-mprec.o)
 .text.__copybits
                0x00000000       0x34 c:/program files (x86)/atollic/truestudio for arm pro 3.2.0/armtools/bin/../lib/gcc/arm-atollic-eabi/4.6.2/../../../../arm-atollic-eabi/lib/thumb/softfp/armv7e-m/fpv4-sp-d16\libc.a(lib_a-mprec.o)
 .text.__any_on
                0x00000000       0x4a c:/program files (x86)/atollic/truestudio for arm pro 3.2.0/armtools/bin/../lib/gcc/arm-atollic-eabi/4.6.2/../../../../arm-atollic-eabi/lib/thumb/softfp/armv7e-m/fpv4-sp-d16\libc.a(lib_a-mprec.o)
 .rodata.__mprec_tinytens
                0x00000000       0x28 c:/program files (x86)/atollic/truestudio for arm pro 3.2.0/armtools/bin/../lib/gcc/arm-atollic-eabi/4.6.2/../../../../arm-atollic-eabi/lib/thumb/softfp/armv7e-m/fpv4-sp-d16\libc.a(lib_a-mprec.o)
 .text          0x00000000        0x0 c:/program files (x86)/atollic/truestudio for arm pro 3.2.0/armtools/bin/../lib/gcc/arm-atollic-eabi/4.6.2/../../../../arm-atollic-eabi/lib/thumb/softfp/armv7e-m/fpv4-sp-d16\libc.a(lib_a-s_fpclassify.o)
 .data          0x00000000        0x0 c:/program files (x86)/atollic/truestudio for arm pro 3.2.0/armtools/bin/../lib/gcc/arm-atollic-eabi/4.6.2/../../../../arm-atollic-eabi/lib/thumb/softfp/armv7e-m/fpv4-sp-d16\libc.a(lib_a-s_fpclassify.o)
 .bss           0x00000000        0x0 c:/program files (x86)/atollic/truestudio for arm pro 3.2.0/armtools/bin/../lib/gcc/arm-atollic-eabi/4.6.2/../../../../arm-atollic-eabi/lib/thumb/softfp/armv7e-m/fpv4-sp-d16\libc.a(lib_a-s_fpclassify.o)
 .text          0x00000000        0x0 c:/program files (x86)/atollic/truestudio for arm pro 3.2.0/armtools/bin/../lib/gcc/arm-atollic-eabi/4.6.2/../../../../arm-atollic-eabi/lib/thumb/softfp/armv7e-m/fpv4-sp-d16\libc.a(lib_a-sbrkr.o)
 .data          0x00000000        0x0 c:/program files (x86)/atollic/truestudio for arm pro 3.2.0/armtools/bin/../lib/gcc/arm-atollic-eabi/4.6.2/../../../../arm-atollic-eabi/lib/thumb/softfp/armv7e-m/fpv4-sp-d16\libc.a(lib_a-sbrkr.o)
 .bss           0x00000000        0x0 c:/program files (x86)/atollic/truestudio for arm pro 3.2.0/armtools/bin/../lib/gcc/arm-atollic-eabi/4.6.2/../../../../arm-atollic-eabi/lib/thumb/softfp/armv7e-m/fpv4-sp-d16\libc.a(lib_a-sbrkr.o)
 .text          0x00000000        0x0 c:/program files (x86)/atollic/truestudio for arm pro 3.2.0/armtools/bin/../lib/gcc/arm-atollic-eabi/4.6.2/../../../../arm-atollic-eabi/lib/thumb/softfp/armv7e-m/fpv4-sp-d16\libc.a(lib_a-strcmp.o)
 .data          0x00000000        0x0 c:/program files (x86)/atollic/truestudio for arm pro 3.2.0/armtools/bin/../lib/gcc/arm-atollic-eabi/4.6.2/../../../../arm-atollic-eabi/lib/thumb/softfp/armv7e-m/fpv4-sp-d16\libc.a(lib_a-strcmp.o)
 .bss           0x00000000        0x0 c:/program files (x86)/atollic/truestudio for arm pro 3.2.0/armtools/bin/../lib/gcc/arm-atollic-eabi/4.6.2/../../../../arm-atollic-eabi/lib/thumb/softfp/armv7e-m/fpv4-sp-d16\libc.a(lib_a-strcmp.o)
 .text.strcmp   0x00000000       0x16 c:/program files (x86)/atollic/truestudio for arm pro 3.2.0/armtools/bin/../lib/gcc/arm-atollic-eabi/4.6.2/../../../../arm-atollic-eabi/lib/thumb/softfp/armv7e-m/fpv4-sp-d16\libc.a(lib_a-strcmp.o)
 .text          0x00000000        0x0 c:/program files (x86)/atollic/truestudio for arm pro 3.2.0/armtools/bin/../lib/gcc/arm-atollic-eabi/4.6.2/../../../../arm-atollic-eabi/lib/thumb/softfp/armv7e-m/fpv4-sp-d16\libc.a(lib_a-strlen.o)
 .data          0x00000000        0x0 c:/program files (x86)/atollic/truestudio for arm pro 3.2.0/armtools/bin/../lib/gcc/arm-atollic-eabi/4.6.2/../../../../arm-atollic-eabi/lib/thumb/softfp/armv7e-m/fpv4-sp-d16\libc.a(lib_a-strlen.o)
 .bss           0x00000000        0x0 c:/program files (x86)/atollic/truestudio for arm pro 3.2.0/armtools/bin/../lib/gcc/arm-atollic-eabi/4.6.2/../../../../arm-atollic-eabi/lib/thumb/softfp/armv7e-m/fpv4-sp-d16\libc.a(lib_a-strlen.o)
 .text          0x00000000        0x0 c:/program files (x86)/atollic/truestudio for arm pro 3.2.0/armtools/bin/../lib/gcc/arm-atollic-eabi/4.6.2/../../../../arm-atollic-eabi/lib/thumb/softfp/armv7e-m/fpv4-sp-d16\libc.a(lib_a-svfiprintf.o)
 .data          0x00000000        0x0 c:/program files (x86)/atollic/truestudio for arm pro 3.2.0/armtools/bin/../lib/gcc/arm-atollic-eabi/4.6.2/../../../../arm-atollic-eabi/lib/thumb/softfp/armv7e-m/fpv4-sp-d16\libc.a(lib_a-svfiprintf.o)
 .bss           0x00000000        0x0 c:/program files (x86)/atollic/truestudio for arm pro 3.2.0/armtools/bin/../lib/gcc/arm-atollic-eabi/4.6.2/../../../../arm-atollic-eabi/lib/thumb/softfp/armv7e-m/fpv4-sp-d16\libc.a(lib_a-svfiprintf.o)
 .text._svfiprintf_r
                0x00000000      0x82c c:/program files (x86)/atollic/truestudio for arm pro 3.2.0/armtools/bin/../lib/gcc/arm-atollic-eabi/4.6.2/../../../../arm-atollic-eabi/lib/thumb/softfp/armv7e-m/fpv4-sp-d16\libc.a(lib_a-svfiprintf.o)
 .rodata.zeroes.6542
                0x00000000       0x10 c:/program files (x86)/atollic/truestudio for arm pro 3.2.0/armtools/bin/../lib/gcc/arm-atollic-eabi/4.6.2/../../../../arm-atollic-eabi/lib/thumb/softfp/armv7e-m/fpv4-sp-d16\libc.a(lib_a-svfiprintf.o)
 .rodata.str1.1
                0x00000000       0x22 c:/program files (x86)/atollic/truestudio for arm pro 3.2.0/armtools/bin/../lib/gcc/arm-atollic-eabi/4.6.2/../../../../arm-atollic-eabi/lib/thumb/softfp/armv7e-m/fpv4-sp-d16\libc.a(lib_a-svfiprintf.o)
 .rodata.blanks.6541
                0x00000000       0x10 c:/program files (x86)/atollic/truestudio for arm pro 3.2.0/armtools/bin/../lib/gcc/arm-atollic-eabi/4.6.2/../../../../arm-atollic-eabi/lib/thumb/softfp/armv7e-m/fpv4-sp-d16\libc.a(lib_a-svfiprintf.o)
 .text          0x00000000        0x0 c:/program files (x86)/atollic/truestudio for arm pro 3.2.0/armtools/bin/../lib/gcc/arm-atollic-eabi/4.6.2/../../../../arm-atollic-eabi/lib/thumb/softfp/armv7e-m/fpv4-sp-d16\libc.a(lib_a-syscalls.o)
 .data          0x00000000        0x0 c:/program files (x86)/atollic/truestudio for arm pro 3.2.0/armtools/bin/../lib/gcc/arm-atollic-eabi/4.6.2/../../../../arm-atollic-eabi/lib/thumb/softfp/armv7e-m/fpv4-sp-d16\libc.a(lib_a-syscalls.o)
 .bss           0x00000000        0x0 c:/program files (x86)/atollic/truestudio for arm pro 3.2.0/armtools/bin/../lib/gcc/arm-atollic-eabi/4.6.2/../../../../arm-atollic-eabi/lib/thumb/softfp/armv7e-m/fpv4-sp-d16\libc.a(lib_a-syscalls.o)
 .text.initialise_monitor_handles
                0x00000000        0x2 c:/program files (x86)/atollic/truestudio for arm pro 3.2.0/armtools/bin/../lib/gcc/arm-atollic-eabi/4.6.2/../../../../arm-atollic-eabi/lib/thumb/softfp/armv7e-m/fpv4-sp-d16\libc.a(lib_a-syscalls.o)
 .text._write   0x00000000        0x4 c:/program files (x86)/atollic/truestudio for arm pro 3.2.0/armtools/bin/../lib/gcc/arm-atollic-eabi/4.6.2/../../../../arm-atollic-eabi/lib/thumb/softfp/armv7e-m/fpv4-sp-d16\libc.a(lib_a-syscalls.o)
 .text._close   0x00000000        0x6 c:/program files (x86)/atollic/truestudio for arm pro 3.2.0/armtools/bin/../lib/gcc/arm-atollic-eabi/4.6.2/../../../../arm-atollic-eabi/lib/thumb/softfp/armv7e-m/fpv4-sp-d16\libc.a(lib_a-syscalls.o)
 .text._fstat   0x00000000        0xa c:/program files (x86)/atollic/truestudio for arm pro 3.2.0/armtools/bin/../lib/gcc/arm-atollic-eabi/4.6.2/../../../../arm-atollic-eabi/lib/thumb/softfp/armv7e-m/fpv4-sp-d16\libc.a(lib_a-syscalls.o)
 .text._isatty  0x00000000        0x4 c:/program files (x86)/atollic/truestudio for arm pro 3.2.0/armtools/bin/../lib/gcc/arm-atollic-eabi/4.6.2/../../../../arm-atollic-eabi/lib/thumb/softfp/armv7e-m/fpv4-sp-d16\libc.a(lib_a-syscalls.o)
 .text._lseek   0x00000000        0x4 c:/program files (x86)/atollic/truestudio for arm pro 3.2.0/armtools/bin/../lib/gcc/arm-atollic-eabi/4.6.2/../../../../arm-atollic-eabi/lib/thumb/softfp/armv7e-m/fpv4-sp-d16\libc.a(lib_a-syscalls.o)
 .text._read    0x00000000        0x4 c:/program files (x86)/atollic/truestudio for arm pro 3.2.0/armtools/bin/../lib/gcc/arm-atollic-eabi/4.6.2/../../../../arm-atollic-eabi/lib/thumb/softfp/armv7e-m/fpv4-sp-d16\libc.a(lib_a-syscalls.o)
 .text._open    0x00000000        0xa c:/program files (x86)/atollic/truestudio for arm pro 3.2.0/armtools/bin/../lib/gcc/arm-atollic-eabi/4.6.2/../../../../arm-atollic-eabi/lib/thumb/softfp/armv7e-m/fpv4-sp-d16\libc.a(lib_a-syscalls.o)
 .text._wait    0x00000000       0x10 c:/program files (x86)/atollic/truestudio for arm pro 3.2.0/armtools/bin/../lib/gcc/arm-atollic-eabi/4.6.2/../../../../arm-atollic-eabi/lib/thumb/softfp/armv7e-m/fpv4-sp-d16\libc.a(lib_a-syscalls.o)
 .text._unlink  0x00000000       0x10 c:/program files (x86)/atollic/truestudio for arm pro 3.2.0/armtools/bin/../lib/gcc/arm-atollic-eabi/4.6.2/../../../../arm-atollic-eabi/lib/thumb/softfp/armv7e-m/fpv4-sp-d16\libc.a(lib_a-syscalls.o)
 .text._times   0x00000000        0x6 c:/program files (x86)/atollic/truestudio for arm pro 3.2.0/armtools/bin/../lib/gcc/arm-atollic-eabi/4.6.2/../../../../arm-atollic-eabi/lib/thumb/softfp/armv7e-m/fpv4-sp-d16\libc.a(lib_a-syscalls.o)
 .text._stat    0x00000000        0xa c:/program files (x86)/atollic/truestudio for arm pro 3.2.0/armtools/bin/../lib/gcc/arm-atollic-eabi/4.6.2/../../../../arm-atollic-eabi/lib/thumb/softfp/armv7e-m/fpv4-sp-d16\libc.a(lib_a-syscalls.o)
 .text._link    0x00000000       0x10 c:/program files (x86)/atollic/truestudio for arm pro 3.2.0/armtools/bin/../lib/gcc/arm-atollic-eabi/4.6.2/../../../../arm-atollic-eabi/lib/thumb/softfp/armv7e-m/fpv4-sp-d16\libc.a(lib_a-syscalls.o)
 .text._fork    0x00000000       0x10 c:/program files (x86)/atollic/truestudio for arm pro 3.2.0/armtools/bin/../lib/gcc/arm-atollic-eabi/4.6.2/../../../../arm-atollic-eabi/lib/thumb/softfp/armv7e-m/fpv4-sp-d16\libc.a(lib_a-syscalls.o)
 .text._execve  0x00000000       0x10 c:/program files (x86)/atollic/truestudio for arm pro 3.2.0/armtools/bin/../lib/gcc/arm-atollic-eabi/4.6.2/../../../../arm-atollic-eabi/lib/thumb/softfp/armv7e-m/fpv4-sp-d16\libc.a(lib_a-syscalls.o)
 .data.environ  0x00000000        0x4 c:/program files (x86)/atollic/truestudio for arm pro 3.2.0/armtools/bin/../lib/gcc/arm-atollic-eabi/4.6.2/../../../../arm-atollic-eabi/lib/thumb/softfp/armv7e-m/fpv4-sp-d16\libc.a(lib_a-syscalls.o)
 .bss.__env     0x00000000        0x4 c:/program files (x86)/atollic/truestudio for arm pro 3.2.0/armtools/bin/../lib/gcc/arm-atollic-eabi/4.6.2/../../../../arm-atollic-eabi/lib/thumb/softfp/armv7e-m/fpv4-sp-d16\libc.a(lib_a-syscalls.o)
 .text          0x00000000        0x0 c:/program files (x86)/atollic/truestudio for arm pro 3.2.0/armtools/bin/../lib/gcc/arm-atollic-eabi/4.6.2/../../../../arm-atollic-eabi/lib/thumb/softfp/armv7e-m/fpv4-sp-d16\libc.a(lib_a-callocr.o)
 .data          0x00000000        0x0 c:/program files (x86)/atollic/truestudio for arm pro 3.2.0/armtools/bin/../lib/gcc/arm-atollic-eabi/4.6.2/../../../../arm-atollic-eabi/lib/thumb/softfp/armv7e-m/fpv4-sp-d16\libc.a(lib_a-callocr.o)
 .bss           0x00000000        0x0 c:/program files (x86)/atollic/truestudio for arm pro 3.2.0/armtools/bin/../lib/gcc/arm-atollic-eabi/4.6.2/../../../../arm-atollic-eabi/lib/thumb/softfp/armv7e-m/fpv4-sp-d16\libc.a(lib_a-callocr.o)
 .text          0x00000000        0x0 c:/program files (x86)/atollic/truestudio for arm pro 3.2.0/armtools/bin/../lib/gcc/arm-atollic-eabi/4.6.2/../../../../arm-atollic-eabi/lib/thumb/softfp/armv7e-m/fpv4-sp-d16\libc.a(lib_a-freer.o)
 .data          0x00000000        0x0 c:/program files (x86)/atollic/truestudio for arm pro 3.2.0/armtools/bin/../lib/gcc/arm-atollic-eabi/4.6.2/../../../../arm-atollic-eabi/lib/thumb/softfp/armv7e-m/fpv4-sp-d16\libc.a(lib_a-freer.o)
 .bss           0x00000000        0x0 c:/program files (x86)/atollic/truestudio for arm pro 3.2.0/armtools/bin/../lib/gcc/arm-atollic-eabi/4.6.2/../../../../arm-atollic-eabi/lib/thumb/softfp/armv7e-m/fpv4-sp-d16\libc.a(lib_a-freer.o)
 .text          0x00000000        0x0 c:/program files (x86)/atollic/truestudio for arm pro 3.2.0/armtools/bin/../lib/gcc/arm-atollic-eabi/4.6.2/../../../../arm-atollic-eabi/lib/thumb/softfp/armv7e-m/fpv4-sp-d16\libc.a(lib_a-memmove.o)
 .data          0x00000000        0x0 c:/program files (x86)/atollic/truestudio for arm pro 3.2.0/armtools/bin/../lib/gcc/arm-atollic-eabi/4.6.2/../../../../arm-atollic-eabi/lib/thumb/softfp/armv7e-m/fpv4-sp-d16\libc.a(lib_a-memmove.o)
 .bss           0x00000000        0x0 c:/program files (x86)/atollic/truestudio for arm pro 3.2.0/armtools/bin/../lib/gcc/arm-atollic-eabi/4.6.2/../../../../arm-atollic-eabi/lib/thumb/softfp/armv7e-m/fpv4-sp-d16\libc.a(lib_a-memmove.o)
 .text          0x00000000        0x0 c:/program files (x86)/atollic/truestudio for arm pro 3.2.0/armtools/bin/../lib/gcc/arm-atollic-eabi/4.6.2/../../../../arm-atollic-eabi/lib/thumb/softfp/armv7e-m/fpv4-sp-d16\libc.a(lib_a-memset.o)
 .data          0x00000000        0x0 c:/program files (x86)/atollic/truestudio for arm pro 3.2.0/armtools/bin/../lib/gcc/arm-atollic-eabi/4.6.2/../../../../arm-atollic-eabi/lib/thumb/softfp/armv7e-m/fpv4-sp-d16\libc.a(lib_a-memset.o)
 .bss           0x00000000        0x0 c:/program files (x86)/atollic/truestudio for arm pro 3.2.0/armtools/bin/../lib/gcc/arm-atollic-eabi/4.6.2/../../../../arm-atollic-eabi/lib/thumb/softfp/armv7e-m/fpv4-sp-d16\libc.a(lib_a-memset.o)
 .text          0x00000000        0x0 c:/program files (x86)/atollic/truestudio for arm pro 3.2.0/armtools/bin/../lib/gcc/arm-atollic-eabi/4.6.2/../../../../arm-atollic-eabi/lib/thumb/softfp/armv7e-m/fpv4-sp-d16\libc.a(lib_a-reallocr.o)
 .data          0x00000000        0x0 c:/program files (x86)/atollic/truestudio for arm pro 3.2.0/armtools/bin/../lib/gcc/arm-atollic-eabi/4.6.2/../../../../arm-atollic-eabi/lib/thumb/softfp/armv7e-m/fpv4-sp-d16\libc.a(lib_a-reallocr.o)
 .bss           0x00000000        0x0 c:/program files (x86)/atollic/truestudio for arm pro 3.2.0/armtools/bin/../lib/gcc/arm-atollic-eabi/4.6.2/../../../../arm-atollic-eabi/lib/thumb/softfp/armv7e-m/fpv4-sp-d16\libc.a(lib_a-reallocr.o)
 .text          0x00000000        0x0 c:/program files (x86)/atollic/truestudio for arm pro 3.2.0/armtools/bin/../lib/gcc/arm-atollic-eabi/4.6.2/../../../../arm-atollic-eabi/lib/thumb/softfp/armv7e-m/fpv4-sp-d16\libc.a(lib_a-reent.o)
 .data          0x00000000        0x0 c:/program files (x86)/atollic/truestudio for arm pro 3.2.0/armtools/bin/../lib/gcc/arm-atollic-eabi/4.6.2/../../../../arm-atollic-eabi/lib/thumb/softfp/armv7e-m/fpv4-sp-d16\libc.a(lib_a-reent.o)
 .bss           0x00000000        0x0 c:/program files (x86)/atollic/truestudio for arm pro 3.2.0/armtools/bin/../lib/gcc/arm-atollic-eabi/4.6.2/../../../../arm-atollic-eabi/lib/thumb/softfp/armv7e-m/fpv4-sp-d16\libc.a(lib_a-reent.o)
 .text.cleanup_glue
                0x00000000       0x1a c:/program files (x86)/atollic/truestudio for arm pro 3.2.0/armtools/bin/../lib/gcc/arm-atollic-eabi/4.6.2/../../../../arm-atollic-eabi/lib/thumb/softfp/armv7e-m/fpv4-sp-d16\libc.a(lib_a-reent.o)
 .text._reclaim_reent
                0x00000000       0xb4 c:/program files (x86)/atollic/truestudio for arm pro 3.2.0/armtools/bin/../lib/gcc/arm-atollic-eabi/4.6.2/../../../../arm-atollic-eabi/lib/thumb/softfp/armv7e-m/fpv4-sp-d16\libc.a(lib_a-reent.o)
 .text._wrapup_reent
                0x00000000       0x38 c:/program files (x86)/atollic/truestudio for arm pro 3.2.0/armtools/bin/../lib/gcc/arm-atollic-eabi/4.6.2/../../../../arm-atollic-eabi/lib/thumb/softfp/armv7e-m/fpv4-sp-d16\libc.a(lib_a-reent.o)
 .data          0x00000000        0x0 c:/program files (x86)/atollic/truestudio for arm pro 3.2.0/armtools/bin/../lib/gcc/arm-atollic-eabi/4.6.2/thumb/softfp/armv7e-m/fpv4-sp-d16\libgcc.a(_arm_addsubdf3.o)
 .bss           0x00000000        0x0 c:/program files (x86)/atollic/truestudio for arm pro 3.2.0/armtools/bin/../lib/gcc/arm-atollic-eabi/4.6.2/thumb/softfp/armv7e-m/fpv4-sp-d16\libgcc.a(_arm_addsubdf3.o)
 .data          0x00000000        0x0 c:/program files (x86)/atollic/truestudio for arm pro 3.2.0/armtools/bin/../lib/gcc/arm-atollic-eabi/4.6.2/thumb/softfp/armv7e-m/fpv4-sp-d16\libgcc.a(_arm_muldivdf3.o)
 .bss           0x00000000        0x0 c:/program files (x86)/atollic/truestudio for arm pro 3.2.0/armtools/bin/../lib/gcc/arm-atollic-eabi/4.6.2/thumb/softfp/armv7e-m/fpv4-sp-d16\libgcc.a(_arm_muldivdf3.o)
 .data          0x00000000        0x0 c:/program files (x86)/atollic/truestudio for arm pro 3.2.0/armtools/bin/../lib/gcc/arm-atollic-eabi/4.6.2/thumb/softfp/armv7e-m/fpv4-sp-d16\libgcc.a(_arm_cmpdf2.o)
 .bss           0x00000000        0x0 c:/program files (x86)/atollic/truestudio for arm pro 3.2.0/armtools/bin/../lib/gcc/arm-atollic-eabi/4.6.2/thumb/softfp/armv7e-m/fpv4-sp-d16\libgcc.a(_arm_cmpdf2.o)
 .data          0x00000000        0x0 c:/program files (x86)/atollic/truestudio for arm pro 3.2.0/armtools/bin/../lib/gcc/arm-atollic-eabi/4.6.2/thumb/softfp/armv7e-m/fpv4-sp-d16\libgcc.a(_arm_fixdfsi.o)
 .bss           0x00000000        0x0 c:/program files (x86)/atollic/truestudio for arm pro 3.2.0/armtools/bin/../lib/gcc/arm-atollic-eabi/4.6.2/thumb/softfp/armv7e-m/fpv4-sp-d16\libgcc.a(_arm_fixdfsi.o)
 .data          0x00000000        0x0 c:/program files (x86)/atollic/truestudio for arm pro 3.2.0/armtools/bin/../lib/gcc/arm-atollic-eabi/4.6.2/thumb/softfp/armv7e-m/fpv4-sp-d16\libgcc.a(_aeabi_uldivmod.o)
 .bss           0x00000000        0x0 c:/program files (x86)/atollic/truestudio for arm pro 3.2.0/armtools/bin/../lib/gcc/arm-atollic-eabi/4.6.2/thumb/softfp/armv7e-m/fpv4-sp-d16\libgcc.a(_aeabi_uldivmod.o)
 .data          0x00000000        0x0 c:/program files (x86)/atollic/truestudio for arm pro 3.2.0/armtools/bin/../lib/gcc/arm-atollic-eabi/4.6.2/thumb/softfp/armv7e-m/fpv4-sp-d16\libgcc.a(bpabi.o)
 .bss           0x00000000        0x0 c:/program files (x86)/atollic/truestudio for arm pro 3.2.0/armtools/bin/../lib/gcc/arm-atollic-eabi/4.6.2/thumb/softfp/armv7e-m/fpv4-sp-d16\libgcc.a(bpabi.o)
 .ARM.extab     0x00000000        0x0 c:/program files (x86)/atollic/truestudio for arm pro 3.2.0/armtools/bin/../lib/gcc/arm-atollic-eabi/4.6.2/thumb/softfp/armv7e-m/fpv4-sp-d16\libgcc.a(bpabi.o)
 .data          0x00000000        0x0 c:/program files (x86)/atollic/truestudio for arm pro 3.2.0/armtools/bin/../lib/gcc/arm-atollic-eabi/4.6.2/thumb/softfp/armv7e-m/fpv4-sp-d16\libgcc.a(unwind-arm.o)
 .bss           0x00000000        0x0 c:/program files (x86)/atollic/truestudio for arm pro 3.2.0/armtools/bin/../lib/gcc/arm-atollic-eabi/4.6.2/thumb/softfp/armv7e-m/fpv4-sp-d16\libgcc.a(unwind-arm.o)
 .data          0x00000000        0x0 c:/program files (x86)/atollic/truestudio for arm pro 3.2.0/armtools/bin/../lib/gcc/arm-atollic-eabi/4.6.2/thumb/softfp/armv7e-m/fpv4-sp-d16\libgcc.a(libunwind.o)
 .bss           0x00000000        0x0 c:/program files (x86)/atollic/truestudio for arm pro 3.2.0/armtools/bin/../lib/gcc/arm-atollic-eabi/4.6.2/thumb/softfp/armv7e-m/fpv4-sp-d16\libgcc.a(libunwind.o)
 .data          0x00000000        0x0 c:/program files (x86)/atollic/truestudio for arm pro 3.2.0/armtools/bin/../lib/gcc/arm-atollic-eabi/4.6.2/thumb/softfp/armv7e-m/fpv4-sp-d16\libgcc.a(pr-support.o)
 .bss           0x00000000        0x0 c:/program files (x86)/atollic/truestudio for arm pro 3.2.0/armtools/bin/../lib/gcc/arm-atollic-eabi/4.6.2/thumb/softfp/armv7e-m/fpv4-sp-d16\libgcc.a(pr-support.o)
 .data          0x00000000        0x0 c:/program files (x86)/atollic/truestudio for arm pro 3.2.0/armtools/bin/../lib/gcc/arm-atollic-eabi/4.6.2/thumb/softfp/armv7e-m/fpv4-sp-d16\libgcc.a(_dvmd_tls.o)
 .bss           0x00000000        0x0 c:/program files (x86)/atollic/truestudio for arm pro 3.2.0/armtools/bin/../lib/gcc/arm-atollic-eabi/4.6.2/thumb/softfp/armv7e-m/fpv4-sp-d16\libgcc.a(_dvmd_tls.o)
 .data          0x00000000        0x0 c:/program files (x86)/atollic/truestudio for arm pro 3.2.0/armtools/bin/../lib/gcc/arm-atollic-eabi/4.6.2/thumb/softfp/armv7e-m/fpv4-sp-d16\libgcc.a(_divdi3.o)
 .bss           0x00000000        0x0 c:/program files (x86)/atollic/truestudio for arm pro 3.2.0/armtools/bin/../lib/gcc/arm-atollic-eabi/4.6.2/thumb/softfp/armv7e-m/fpv4-sp-d16\libgcc.a(_divdi3.o)
 .ARM.extab     0x00000000        0x0 c:/program files (x86)/atollic/truestudio for arm pro 3.2.0/armtools/bin/../lib/gcc/arm-atollic-eabi/4.6.2/thumb/softfp/armv7e-m/fpv4-sp-d16\libgcc.a(_divdi3.o)
 .data          0x00000000        0x0 c:/program files (x86)/atollic/truestudio for arm pro 3.2.0/armtools/bin/../lib/gcc/arm-atollic-eabi/4.6.2/thumb/softfp/armv7e-m/fpv4-sp-d16\libgcc.a(_udivdi3.o)
 .bss           0x00000000        0x0 c:/program files (x86)/atollic/truestudio for arm pro 3.2.0/armtools/bin/../lib/gcc/arm-atollic-eabi/4.6.2/thumb/softfp/armv7e-m/fpv4-sp-d16\libgcc.a(_udivdi3.o)
 .ARM.extab     0x00000000        0x0 c:/program files (x86)/atollic/truestudio for arm pro 3.2.0/armtools/bin/../lib/gcc/arm-atollic-eabi/4.6.2/thumb/softfp/armv7e-m/fpv4-sp-d16\libgcc.a(_udivdi3.o)
 .text          0x00000000        0x0 c:/program files (x86)/atollic/truestudio for arm pro 3.2.0/armtools/bin/../lib/gcc/arm-atollic-eabi/4.6.2/../../../../arm-atollic-eabi/lib/thumb/softfp/armv7e-m/fpv4-sp-d16\libc.a(lib_a-abort.o)
 .data          0x00000000        0x0 c:/program files (x86)/atollic/truestudio for arm pro 3.2.0/armtools/bin/../lib/gcc/arm-atollic-eabi/4.6.2/../../../../arm-atollic-eabi/lib/thumb/softfp/armv7e-m/fpv4-sp-d16\libc.a(lib_a-abort.o)
 .bss           0x00000000        0x0 c:/program files (x86)/atollic/truestudio for arm pro 3.2.0/armtools/bin/../lib/gcc/arm-atollic-eabi/4.6.2/../../../../arm-atollic-eabi/lib/thumb/softfp/armv7e-m/fpv4-sp-d16\libc.a(lib_a-abort.o)
 .text          0x00000000        0x0 c:/program files (x86)/atollic/truestudio for arm pro 3.2.0/armtools/bin/../lib/gcc/arm-atollic-eabi/4.6.2/../../../../arm-atollic-eabi/lib/thumb/softfp/armv7e-m/fpv4-sp-d16\libc.a(lib_a-signal.o)
 .data          0x00000000        0x0 c:/program files (x86)/atollic/truestudio for arm pro 3.2.0/armtools/bin/../lib/gcc/arm-atollic-eabi/4.6.2/../../../../arm-atollic-eabi/lib/thumb/softfp/armv7e-m/fpv4-sp-d16\libc.a(lib_a-signal.o)
 .bss           0x00000000        0x0 c:/program files (x86)/atollic/truestudio for arm pro 3.2.0/armtools/bin/../lib/gcc/arm-atollic-eabi/4.6.2/../../../../arm-atollic-eabi/lib/thumb/softfp/armv7e-m/fpv4-sp-d16\libc.a(lib_a-signal.o)
 .text._init_signal_r
                0x00000000       0x28 c:/program files (x86)/atollic/truestudio for arm pro 3.2.0/armtools/bin/../lib/gcc/arm-atollic-eabi/4.6.2/../../../../arm-atollic-eabi/lib/thumb/softfp/armv7e-m/fpv4-sp-d16\libc.a(lib_a-signal.o)
 .text._signal_r
                0x00000000       0x32 c:/program files (x86)/atollic/truestudio for arm pro 3.2.0/armtools/bin/../lib/gcc/arm-atollic-eabi/4.6.2/../../../../arm-atollic-eabi/lib/thumb/softfp/armv7e-m/fpv4-sp-d16\libc.a(lib_a-signal.o)
 .text.__sigtramp_r
                0x00000000       0x44 c:/program files (x86)/atollic/truestudio for arm pro 3.2.0/armtools/bin/../lib/gcc/arm-atollic-eabi/4.6.2/../../../../arm-atollic-eabi/lib/thumb/softfp/armv7e-m/fpv4-sp-d16\libc.a(lib_a-signal.o)
 .text.signal   0x00000000       0x14 c:/program files (x86)/atollic/truestudio for arm pro 3.2.0/armtools/bin/../lib/gcc/arm-atollic-eabi/4.6.2/../../../../arm-atollic-eabi/lib/thumb/softfp/armv7e-m/fpv4-sp-d16\libc.a(lib_a-signal.o)
 .text._init_signal
                0x00000000        0xc c:/program files (x86)/atollic/truestudio for arm pro 3.2.0/armtools/bin/../lib/gcc/arm-atollic-eabi/4.6.2/../../../../arm-atollic-eabi/lib/thumb/softfp/armv7e-m/fpv4-sp-d16\libc.a(lib_a-signal.o)
 .text.__sigtramp
                0x00000000       0x10 c:/program files (x86)/atollic/truestudio for arm pro 3.2.0/armtools/bin/../lib/gcc/arm-atollic-eabi/4.6.2/../../../../arm-atollic-eabi/lib/thumb/softfp/armv7e-m/fpv4-sp-d16\libc.a(lib_a-signal.o)
 .text          0x00000000        0x0 c:/program files (x86)/atollic/truestudio for arm pro 3.2.0/armtools/bin/../lib/gcc/arm-atollic-eabi/4.6.2/../../../../arm-atollic-eabi/lib/thumb/softfp/armv7e-m/fpv4-sp-d16\libc.a(lib_a-signalr.o)
 .data          0x00000000        0x0 c:/program files (x86)/atollic/truestudio for arm pro 3.2.0/armtools/bin/../lib/gcc/arm-atollic-eabi/4.6.2/../../../../arm-atollic-eabi/lib/thumb/softfp/armv7e-m/fpv4-sp-d16\libc.a(lib_a-signalr.o)
 .bss           0x00000000        0x0 c:/program files (x86)/atollic/truestudio for arm pro 3.2.0/armtools/bin/../lib/gcc/arm-atollic-eabi/4.6.2/../../../../arm-atollic-eabi/lib/thumb/softfp/armv7e-m/fpv4-sp-d16\libc.a(lib_a-signalr.o)
 .text          0x00000000        0x0 c:/program files (x86)/atollic/truestudio for arm pro 3.2.0/armtools/bin/../lib/gcc/arm-atollic-eabi/4.6.2/thumb/softfp/armv7e-m/fpv4-sp-d16/crtend.o
 .data          0x00000000        0x0 c:/program files (x86)/atollic/truestudio for arm pro 3.2.0/armtools/bin/../lib/gcc/arm-atollic-eabi/4.6.2/thumb/softfp/armv7e-m/fpv4-sp-d16/crtend.o
 .bss           0x00000000        0x0 c:/program files (x86)/atollic/truestudio for arm pro 3.2.0/armtools/bin/../lib/gcc/arm-atollic-eabi/4.6.2/thumb/softfp/armv7e-m/fpv4-sp-d16/crtend.o
 .eh_frame      0x00000000        0x4 c:/program files (x86)/atollic/truestudio for arm pro 3.2.0/armtools/bin/../lib/gcc/arm-atollic-eabi/4.6.2/thumb/softfp/armv7e-m/fpv4-sp-d16/crtend.o
 .jcr           0x00000000        0x4 c:/program files (x86)/atollic/truestudio for arm pro 3.2.0/armtools/bin/../lib/gcc/arm-atollic-eabi/4.6.2/thumb/softfp/armv7e-m/fpv4-sp-d16/crtend.o
 .text          0x00000000        0x0 c:/program files (x86)/atollic/truestudio for arm pro 3.2.0/armtools/bin/../lib/gcc/arm-atollic-eabi/4.6.2/thumb/softfp/armv7e-m/fpv4-sp-d16/crtn.o
 .data          0x00000000        0x0 c:/program files (x86)/atollic/truestudio for arm pro 3.2.0/armtools/bin/../lib/gcc/arm-atollic-eabi/4.6.2/thumb/softfp/armv7e-m/fpv4-sp-d16/crtn.o
 .bss           0x00000000        0x0 c:/program files (x86)/atollic/truestudio for arm pro 3.2.0/armtools/bin/../lib/gcc/arm-atollic-eabi/4.6.2/thumb/softfp/armv7e-m/fpv4-sp-d16/crtn.o

Memory Configuration

Name             Origin             Length             Attributes
FLASH            0x08000000         0x00100000         xr
RAM              0x20000000         0x00020000         xrw
MEMORY_B1        0x60000000         0x00000000         xr
CCMRAM           0x10000000         0x00010000         rw
*default*        0x00000000         0xffffffff

Linker script and memory map

LOAD c:/program files (x86)/atollic/truestudio for arm pro 3.2.0/armtools/bin/../lib/gcc/arm-atollic-eabi/4.6.2/thumb/softfp/armv7e-m/fpv4-sp-d16/crti.o
LOAD c:/program files (x86)/atollic/truestudio for arm pro 3.2.0/armtools/bin/../lib/gcc/arm-atollic-eabi/4.6.2/thumb/softfp/armv7e-m/fpv4-sp-d16/crtbegin.o
LOAD uCOS-II\Source\os_tmr.o
LOAD uCOS-II\Source\os_time.o
LOAD uCOS-II\Source\os_task.o
LOAD uCOS-II\Source\os_sem.o
LOAD uCOS-II\Source\os_q.o
LOAD uCOS-II\Source\os_mutex.o
LOAD uCOS-II\Source\os_mem.o
LOAD uCOS-II\Source\os_mbox.o
LOAD uCOS-II\Source\os_flag.o
LOAD uCOS-II\Source\os_core.o
LOAD uCOS-II\Ports\ARM-Cortex-M3\Generic\GNU\os_dbg.o
LOAD uCOS-II\Ports\ARM-Cortex-M3\Generic\GNU\os_cpu_c.o
LOAD uCOS-II\Ports\ARM-Cortex-M3\Generic\GNU\os_cpu_a.o
LOAD uC-LIB\lib_str.o
LOAD uC-LIB\lib_mem.o
LOAD uC-LIB\lib_math.o
LOAD uC-LIB\lib_ascii.o
LOAD uC-CPU\cpu_core.o
LOAD uC-CPU\ARM-Cortex-M3\GNU\cpu_c.o
LOAD uC-CPU\ARM-Cortex-M3\GNU\cpu_a.o
LOAD BSP\cstartup.o
LOAD BSP\bsp_ser.o
LOAD BSP\bsp_lcd.o
LOAD BSP\bsp_ioe.o
LOAD BSP\bsp_int.o
LOAD BSP\bsp.o
LOAD BSP\STM32F2xx\src\stm32f2xx_wwdg.o
LOAD BSP\STM32F2xx\src\stm32f2xx_usart.o
LOAD BSP\STM32F2xx\src\stm32f2xx_tim.o
LOAD BSP\STM32F2xx\src\stm32f2xx_syscfg.o
LOAD BSP\STM32F2xx\src\stm32f2xx_spi.o
LOAD BSP\STM32F2xx\src\stm32f2xx_sdio.o
LOAD BSP\STM32F2xx\src\stm32f2xx_rtc.o
LOAD BSP\STM32F2xx\src\stm32f2xx_rng.o
LOAD BSP\STM32F2xx\src\stm32f2xx_rcc.o
LOAD BSP\STM32F2xx\src\stm32f2xx_pwr.o
LOAD BSP\STM32F2xx\src\stm32f2xx_iwdg.o
LOAD BSP\STM32F2xx\src\stm32f2xx_i2c.o
LOAD BSP\STM32F2xx\src\stm32f2xx_hash_sha1.o
LOAD BSP\STM32F2xx\src\stm32f2xx_hash_md5.o
LOAD BSP\STM32F2xx\src\stm32f2xx_hash.o
LOAD BSP\STM32F2xx\src\stm32f2xx_gpio.o
LOAD BSP\STM32F2xx\src\stm32f2xx_fsmc.o
LOAD BSP\STM32F2xx\src\stm32f2xx_flash.o
LOAD BSP\STM32F2xx\src\stm32f2xx_exti.o
LOAD BSP\STM32F2xx\src\stm32f2xx_dma.o
LOAD BSP\STM32F2xx\src\stm32f2xx_dcmi.o
LOAD BSP\STM32F2xx\src\stm32f2xx_dbgmcu.o
LOAD BSP\STM32F2xx\src\stm32f2xx_dac.o
LOAD BSP\STM32F2xx\src\stm32f2xx_cryp_tdes.o
LOAD BSP\STM32F2xx\src\stm32f2xx_cryp_des.o
LOAD BSP\STM32F2xx\src\stm32f2xx_cryp_aes.o
LOAD BSP\STM32F2xx\src\stm32f2xx_cryp.o
LOAD BSP\STM32F2xx\src\stm32f2xx_crc.o
LOAD BSP\STM32F2xx\src\stm32f2xx_can.o
LOAD BSP\STM32F2xx\src\stm32f2xx_adc.o
LOAD BSP\STM32F2xx\src\misc.o
LOAD BSP\OS\bsp_os.o
LOAD BSP\CMSIS\Device_Support\system_stm32f2xx.o
LOAD APP\app_hooks.o
LOAD APP\app.o
                0x00001000                malloc_getpagesize_P = 0x1000
START GROUP
LOAD c:/program files (x86)/atollic/truestudio for arm pro 3.2.0/armtools/bin/../lib/gcc/arm-atollic-eabi/4.6.2/thumb/softfp/armv7e-m/fpv4-sp-d16\libgcc.a
LOAD c:/program files (x86)/atollic/truestudio for arm pro 3.2.0/armtools/bin/../lib/gcc/arm-atollic-eabi/4.6.2/../../../../arm-atollic-eabi/lib/thumb/softfp/armv7e-m/fpv4-sp-d16\libc.a
END GROUP
LOAD c:/program files (x86)/atollic/truestudio for arm pro 3.2.0/armtools/bin/../lib/gcc/arm-atollic-eabi/4.6.2/thumb/softfp/armv7e-m/fpv4-sp-d16/crtend.o
LOAD c:/program files (x86)/atollic/truestudio for arm pro 3.2.0/armtools/bin/../lib/gcc/arm-atollic-eabi/4.6.2/thumb/softfp/armv7e-m/fpv4-sp-d16/crtn.o
                0x20020000                _estack = 0x20020000
                0x00000000                _Min_Heap_Size = 0x0
                0x00000400                _Min_Stack_Size = 0x400

.isr_vector     0x08000000      0x184
                0x08000000                . = ALIGN (0x4)
 *(.isr_vector)
 .isr_vector    0x08000000      0x184 BSP\cstartup.o
                0x08000000                g_pfnVectors
                0x08000184                . = ALIGN (0x4)

.text           0x08000188     0x9a48
                0x08000188                . = ALIGN (0x4)
 *(.text)
 .text          0x08000188       0x54 c:/program files (x86)/atollic/truestudio for arm pro 3.2.0/armtools/bin/../lib/gcc/arm-atollic-eabi/4.6.2/thumb/softfp/armv7e-m/fpv4-sp-d16/crtbegin.o
 .text          0x080001dc       0xb0 uCOS-II\Ports\ARM-Cortex-M3\Generic\GNU\os_cpu_a.o
                0x080001dc                OS_CPU_SR_Save
                0x080001e4                OS_CPU_SR_Restore
                0x080001ea                OSStartHighRdy
                0x0800020e                OSCtxSw
                0x08000216                OSIntCtxSw
                0x0800021e                OS_CPU_PendSVHandler
 .text          0x0800028c       0x34 uC-CPU\ARM-Cortex-M3\GNU\cpu_a.o
                0x0800028c                CPU_IntDis
                0x08000290                CPU_IntEn
                0x08000294                CPU_SR_Save
                0x0800029c                CPU_SR_Restore
                0x080002a2                CPU_WaitForInt
                0x080002a6                CPU_WaitForExcept
                0x080002aa                CPU_CntLeadZeros
                0x080002b0                CPU_CntTrailZeros
                0x080002ba                CPU_RevBits
 .text          0x080002c0      0x370 c:/program files (x86)/atollic/truestudio for arm pro 3.2.0/armtools/bin/../lib/gcc/arm-atollic-eabi/4.6.2/thumb/softfp/armv7e-m/fpv4-sp-d16\libgcc.a(_arm_addsubdf3.o)
                0x080002c0                __aeabi_drsub
                0x080002c8                __aeabi_dsub
                0x080002c8                __subdf3
                0x080002cc                __aeabi_dadd
                0x080002cc                __adddf3
                0x08000544                __floatunsidf
                0x08000544                __aeabi_ui2d
                0x08000564                __floatsidf
                0x08000564                __aeabi_i2d
                0x08000588                __aeabi_f2d
                0x08000588                __extendsfdf2
                0x080005c4                __floatundidf
                0x080005c4                __aeabi_ul2d
                0x080005d4                __floatdidf
                0x080005d4                __aeabi_l2d
 .text          0x08000630      0x424 c:/program files (x86)/atollic/truestudio for arm pro 3.2.0/armtools/bin/../lib/gcc/arm-atollic-eabi/4.6.2/thumb/softfp/armv7e-m/fpv4-sp-d16\libgcc.a(_arm_muldivdf3.o)
                0x08000630                __aeabi_dmul
                0x08000630                __muldf3
                0x08000884                __divdf3
                0x08000884                __aeabi_ddiv
 .text          0x08000a54      0x110 c:/program files (x86)/atollic/truestudio for arm pro 3.2.0/armtools/bin/../lib/gcc/arm-atollic-eabi/4.6.2/thumb/softfp/armv7e-m/fpv4-sp-d16\libgcc.a(_arm_cmpdf2.o)
                0x08000a54                __gtdf2
                0x08000a54                __gedf2
                0x08000a5c                __ltdf2
                0x08000a5c                __ledf2
                0x08000a64                __nedf2
                0x08000a64                __eqdf2
                0x08000a64                __cmpdf2
                0x08000ae0                __aeabi_cdrcmple
                0x08000af0                __aeabi_cdcmpeq
                0x08000af0                __aeabi_cdcmple
                0x08000b00                __aeabi_dcmpeq
                0x08000b14                __aeabi_dcmplt
                0x08000b28                __aeabi_dcmple
                0x08000b3c                __aeabi_dcmpge
                0x08000b50                __aeabi_dcmpgt
 .text          0x08000b64       0x50 c:/program files (x86)/atollic/truestudio for arm pro 3.2.0/armtools/bin/../lib/gcc/arm-atollic-eabi/4.6.2/thumb/softfp/armv7e-m/fpv4-sp-d16\libgcc.a(_arm_fixdfsi.o)
                0x08000b64                __aeabi_d2iz
                0x08000b64                __fixdfsi
 .text          0x08000bb4       0x2c c:/program files (x86)/atollic/truestudio for arm pro 3.2.0/armtools/bin/../lib/gcc/arm-atollic-eabi/4.6.2/thumb/softfp/armv7e-m/fpv4-sp-d16\libgcc.a(_aeabi_uldivmod.o)
                0x08000bb4                __aeabi_uldivmod
 .text          0x08000be0       0x58 c:/program files (x86)/atollic/truestudio for arm pro 3.2.0/armtools/bin/../lib/gcc/arm-atollic-eabi/4.6.2/thumb/softfp/armv7e-m/fpv4-sp-d16\libgcc.a(bpabi.o)
                0x08000be0                __gnu_ldivmod_helper
                0x08000c0c                __gnu_uldivmod_helper
 .text          0x08000c38      0xb54 c:/program files (x86)/atollic/truestudio for arm pro 3.2.0/armtools/bin/../lib/gcc/arm-atollic-eabi/4.6.2/thumb/softfp/armv7e-m/fpv4-sp-d16\libgcc.a(unwind-arm.o)
                0x08000ee0                _Unwind_VRS_Get
                0x08000f20                _Unwind_VRS_Set
                0x08001280                __aeabi_unwind_cpp_pr2
                0x08001284                __aeabi_unwind_cpp_pr1
                0x08001288                __aeabi_unwind_cpp_pr0
                0x0800128c                _Unwind_VRS_Pop
                0x08001640                _Unwind_GetCFA
                0x08001644                __gnu_Unwind_RaiseException
                0x080016a4                __gnu_Unwind_ForcedUnwind
                0x080016b8                __gnu_Unwind_Resume
                0x080016f4                __gnu_Unwind_Resume_or_Rethrow
                0x08001704                _Unwind_Complete
                0x08001708                _Unwind_DeleteException
                0x08001718                __gnu_Unwind_Backtrace
 .text          0x0800178c      0x1ac c:/program files (x86)/atollic/truestudio for arm pro 3.2.0/armtools/bin/../lib/gcc/arm-atollic-eabi/4.6.2/thumb/softfp/armv7e-m/fpv4-sp-d16\libgcc.a(libunwind.o)
                0x0800178c                __restore_core_regs
                0x0800178c                restore_core_regs
                0x080017a4                __gnu_Unwind_Restore_VFP
                0x080017ac                __gnu_Unwind_Save_VFP
                0x080017b4                __gnu_Unwind_Restore_VFP_D
                0x080017bc                __gnu_Unwind_Save_VFP_D
                0x080017c4                __gnu_Unwind_Restore_VFP_D_16_to_31
                0x080017cc                __gnu_Unwind_Save_VFP_D_16_to_31
                0x080017d4                __gnu_Unwind_Restore_WMMXD
                0x08001818                __gnu_Unwind_Save_WMMXD
                0x0800185c                __gnu_Unwind_Restore_WMMXC
                0x08001870                __gnu_Unwind_Save_WMMXC
                0x08001884                ___Unwind_RaiseException
                0x08001884                _Unwind_RaiseException
                0x080018a8                _Unwind_Resume
                0x080018a8                ___Unwind_Resume
                0x080018cc                _Unwind_Resume_or_Rethrow
                0x080018cc                ___Unwind_Resume_or_Rethrow
                0x080018f0                _Unwind_ForcedUnwind
                0x080018f0                ___Unwind_ForcedUnwind
                0x08001914                ___Unwind_Backtrace
                0x08001914                _Unwind_Backtrace
 .text          0x08001938      0x374 c:/program files (x86)/atollic/truestudio for arm pro 3.2.0/armtools/bin/../lib/gcc/arm-atollic-eabi/4.6.2/thumb/softfp/armv7e-m/fpv4-sp-d16\libgcc.a(pr-support.o)
                0x0800198c                __gnu_unwind_execute
                0x08001c54                __gnu_unwind_frame
                0x08001c7c                _Unwind_GetRegionStart
                0x08001c88                _Unwind_GetLanguageSpecificData
                0x08001c9c                _Unwind_GetDataRelBase
                0x08001ca4                _Unwind_GetTextRelBase
 .text          0x08001cac        0x4 c:/program files (x86)/atollic/truestudio for arm pro 3.2.0/armtools/bin/../lib/gcc/arm-atollic-eabi/4.6.2/thumb/softfp/armv7e-m/fpv4-sp-d16\libgcc.a(_dvmd_tls.o)
                0x08001cac                __aeabi_idiv0
                0x08001cac                __aeabi_ldiv0
 .text          0x08001cb0      0x2c0 c:/program files (x86)/atollic/truestudio for arm pro 3.2.0/armtools/bin/../lib/gcc/arm-atollic-eabi/4.6.2/thumb/softfp/armv7e-m/fpv4-sp-d16\libgcc.a(_divdi3.o)
                0x08001cb0                __divdi3
 .text          0x08001f70      0x294 c:/program files (x86)/atollic/truestudio for arm pro 3.2.0/armtools/bin/../lib/gcc/arm-atollic-eabi/4.6.2/thumb/softfp/armv7e-m/fpv4-sp-d16\libgcc.a(_udivdi3.o)
                0x08001f70                __udivdi3
 *(.text*)
 .text.OSTmrSignal
                0x08002204       0x28 uCOS-II\Source\os_tmr.o
                0x08002204                OSTmrSignal
 .text.OSTmr_Init
                0x0800222c      0x190 uCOS-II\Source\os_tmr.o
                0x0800222c                OSTmr_Init
 .text.OSTmr_InitTask
                0x080023bc       0x60 uCOS-II\Source\os_tmr.o
 .text.OSTmr_Link
                0x0800241c       0xdc uCOS-II\Source\os_tmr.o
 .text.OSTmr_Unlink
                0x080024f8       0x9c uCOS-II\Source\os_tmr.o
 .text.OSTmr_Task
                0x08002594       0xd0 uCOS-II\Source\os_tmr.o
 .text.OSTimeDly
                0x08002664       0xdc uCOS-II\Source\os_time.o
                0x08002664                OSTimeDly
 .text.OSTimeDlyHMSM
                0x08002740       0x90 uCOS-II\Source\os_time.o
                0x08002740                OSTimeDlyHMSM
 .text.OSTaskCreateExt
                0x080027d0       0xec uCOS-II\Source\os_task.o
                0x080027d0                OSTaskCreateExt
 .text.OSTaskDel
                0x080028bc      0x25c uCOS-II\Source\os_task.o
                0x080028bc                OSTaskDel
 .text.OSTaskNameSet
                0x08002b18       0xa4 uCOS-II\Source\os_task.o
                0x08002b18                OSTaskNameSet
 .text.OSTaskStkChk
                0x08002bbc       0xe8 uCOS-II\Source\os_task.o
                0x08002bbc                OSTaskStkChk
 .text.OSTaskSuspend
                0x08002ca4      0x120 uCOS-II\Source\os_task.o
                0x08002ca4                OSTaskSuspend
 .text.OS_TaskReturn
                0x08002dc4       0x20 uCOS-II\Source\os_task.o
                0x08002dc4                OS_TaskReturn
 .text.OS_TaskStkClr
                0x08002de4       0x50 uCOS-II\Source\os_task.o
                0x08002de4                OS_TaskStkClr
 .text.OSSemCreate
                0x08002e34       0x9c uCOS-II\Source\os_sem.o
                0x08002e34                OSSemCreate
 .text.OSSemPend
                0x08002ed0      0x178 uCOS-II\Source\os_sem.o
                0x08002ed0                OSSemPend
 .text.OSSemPost
                0x08003048       0x88 uCOS-II\Source\os_sem.o
                0x08003048                OSSemPost
 .text.OS_QInit
                0x080030d0       0xb0 uCOS-II\Source\os_q.o
                0x080030d0                OS_QInit
 .text.OS_MemInit
                0x08003180       0xc0 uCOS-II\Source\os_mem.o
                0x08003180                OS_MemInit
 .text.OS_FlagInit
                0x08003240       0xbc uCOS-II\Source\os_flag.o
                0x08003240                OS_FlagInit
 .text.OS_FlagUnlink
                0x080032fc       0x60 uCOS-II\Source\os_flag.o
                0x080032fc                OS_FlagUnlink
 .text.OSEventNameSet
                0x0800335c       0x68 uCOS-II\Source\os_core.o
                0x0800335c                OSEventNameSet
 .text.OSInit   0x080033c4       0x3c uCOS-II\Source\os_core.o
                0x080033c4                OSInit
 .text.OSIntEnter
                0x08003400       0x40 uCOS-II\Source\os_core.o
                0x08003400                OSIntEnter
 .text.OSIntExit
                0x08003440       0xe0 uCOS-II\Source\os_core.o
                0x08003440                OSIntExit
 .text.OSSchedLock
                0x08003520       0x68 uCOS-II\Source\os_core.o
                0x08003520                OSSchedLock
 .text.OSSchedUnlock
                0x08003588       0x90 uCOS-II\Source\os_core.o
                0x08003588                OSSchedUnlock
 .text.OSStart  0x08003618       0x68 uCOS-II\Source\os_core.o
                0x08003618                OSStart
 .text.OSStatInit
                0x08003680       0x70 uCOS-II\Source\os_core.o
                0x08003680                OSStatInit
 .text.OSTimeTick
                0x080036f0      0x184 uCOS-II\Source\os_core.o
                0x080036f0                OSTimeTick
 .text.OS_Dummy
                0x08003874        0xc uCOS-II\Source\os_core.o
                0x08003874                OS_Dummy
 .text.OS_EventTaskRdy
                0x08003880      0x100 uCOS-II\Source\os_core.o
                0x08003880                OS_EventTaskRdy
 .text.OS_EventTaskWait
                0x08003980       0xf4 uCOS-II\Source\os_core.o
                0x08003980                OS_EventTaskWait
 .text.OS_EventTaskRemove
                0x08003a74       0x60 uCOS-II\Source\os_core.o
                0x08003a74                OS_EventTaskRemove
 .text.OS_EventTaskRemoveMulti
                0x08003ad4       0x88 uCOS-II\Source\os_core.o
                0x08003ad4                OS_EventTaskRemoveMulti
 .text.OS_EventWaitListInit
                0x08003b5c       0x3c uCOS-II\Source\os_core.o
                0x08003b5c                OS_EventWaitListInit
 .text.OS_InitEventList
                0x08003b98       0xd8 uCOS-II\Source\os_core.o
 .text.OS_InitMisc
                0x08003c70       0xa4 uCOS-II\Source\os_core.o
 .text.OS_InitRdyList
                0x08003d14       0x7c uCOS-II\Source\os_core.o
 .text.OS_InitTaskIdle
                0x08003d90       0x60 uCOS-II\Source\os_core.o
 .text.OS_InitTaskStat
                0x08003df0       0x60 uCOS-II\Source\os_core.o
 .text.OS_InitTCBList
                0x08003e50       0xd4 uCOS-II\Source\os_core.o
 .text.OS_MemClr
                0x08003f24       0x38 uCOS-II\Source\os_core.o
                0x08003f24                OS_MemClr
 .text.OS_Sched
                0x08003f5c       0xac uCOS-II\Source\os_core.o
                0x08003f5c                OS_Sched
 .text.OS_SchedNew
                0x08004008       0x58 uCOS-II\Source\os_core.o
 .text.OS_TaskIdle
                0x08004060       0x3c uCOS-II\Source\os_core.o
                0x08004060                OS_TaskIdle
 .text.OS_TaskStat
                0x0800409c      0x104 uCOS-II\Source\os_core.o
                0x0800409c                OS_TaskStat
 .text.OS_TaskStatStkChk
                0x080041a0       0x70 uCOS-II\Source\os_core.o
                0x080041a0                OS_TaskStatStkChk
 .text.OS_TCBInit
                0x08004210      0x254 uCOS-II\Source\os_core.o
                0x08004210                OS_TCBInit
 .text.OSDebugInit
                0x08004464      0x24c uCOS-II\Ports\ARM-Cortex-M3\Generic\GNU\os_dbg.o
                0x08004464                OSDebugInit
 .text.OSInitHookBegin
                0x080046b0       0x60 uCOS-II\Ports\ARM-Cortex-M3\Generic\GNU\os_cpu_c.o
                0x080046b0                OSInitHookBegin
 .text.OSInitHookEnd
                0x08004710        0xc uCOS-II\Ports\ARM-Cortex-M3\Generic\GNU\os_cpu_c.o
                0x08004710                OSInitHookEnd
 .text.OSTaskCreateHook
                0x0800471c       0x18 uCOS-II\Ports\ARM-Cortex-M3\Generic\GNU\os_cpu_c.o
                0x0800471c                OSTaskCreateHook
 .text.OSTaskDelHook
                0x08004734       0x18 uCOS-II\Ports\ARM-Cortex-M3\Generic\GNU\os_cpu_c.o
                0x08004734                OSTaskDelHook
 .text.OSTaskIdleHook
                0x0800474c        0xc uCOS-II\Ports\ARM-Cortex-M3\Generic\GNU\os_cpu_c.o
                0x0800474c                OSTaskIdleHook
 .text.OSTaskReturnHook
                0x08004758       0x18 uCOS-II\Ports\ARM-Cortex-M3\Generic\GNU\os_cpu_c.o
                0x08004758                OSTaskReturnHook
 .text.OSTaskStatHook
                0x08004770        0xc uCOS-II\Ports\ARM-Cortex-M3\Generic\GNU\os_cpu_c.o
                0x08004770                OSTaskStatHook
 .text.OSTaskStkInit
                0x0800477c      0x118 uCOS-II\Ports\ARM-Cortex-M3\Generic\GNU\os_cpu_c.o
                0x0800477c                OSTaskStkInit
 .text.OSTaskSwHook
                0x08004894        0xc uCOS-II\Ports\ARM-Cortex-M3\Generic\GNU\os_cpu_c.o
                0x08004894                OSTaskSwHook
 .text.OSTCBInitHook
                0x080048a0       0x18 uCOS-II\Ports\ARM-Cortex-M3\Generic\GNU\os_cpu_c.o
                0x080048a0                OSTCBInitHook
 .text.OSTimeTickHook
                0x080048b8       0x44 uCOS-II\Ports\ARM-Cortex-M3\Generic\GNU\os_cpu_c.o
                0x080048b8                OSTimeTickHook
 .text.OS_CPU_SysTickHandler
                0x080048fc       0x40 uCOS-II\Ports\ARM-Cortex-M3\Generic\GNU\os_cpu_c.o
                0x080048fc                OS_CPU_SysTickHandler
 .text.OS_CPU_SysTickInit
                0x0800493c       0x60 uCOS-II\Ports\ARM-Cortex-M3\Generic\GNU\os_cpu_c.o
                0x0800493c                OS_CPU_SysTickInit
 .text.Mem_Init
                0x0800499c       0xbc uC-LIB\lib_mem.o
                0x0800499c                Mem_Init
 .text.Mem_Clr  0x08004a58       0x20 uC-LIB\lib_mem.o
                0x08004a58                Mem_Clr
 .text.Mem_Set  0x08004a78       0xe4 uC-LIB\lib_mem.o
                0x08004a78                Mem_Set
 .text.CPU_Init
                0x08004b5c       0x10 uC-CPU\cpu_core.o
                0x08004b5c                CPU_Init
 .text.CPU_NameClr
                0x08004b6c       0x34 uC-CPU\cpu_core.o
                0x08004b6c                CPU_NameClr
 .text.CPU_TS_TmrFreqSet
                0x08004ba0       0x20 uC-CPU\cpu_core.o
                0x08004ba0                CPU_TS_TmrFreqSet
 .text.CPU_NameInit
                0x08004bc0        0xc uC-CPU\cpu_core.o
 .text.CPU_TS_Init
                0x08004bcc       0x18 uC-CPU\cpu_core.o
 .text.CPU_IntSrcEn
                0x08004be4      0x198 uC-CPU\ARM-Cortex-M3\GNU\cpu_c.o
                0x08004be4                CPU_IntSrcEn
 .text.Reset_Handler
                0x08004d7c       0x48 BSP\cstartup.o
                0x08004d7c                Reset_Handler
 .text.App_NMI_ISR
                0x08004dc4        0x2 BSP\cstartup.o
 .text.App_Fault_ISR
                0x08004dc6        0x2 BSP\cstartup.o
 .text.App_MemFault_ISR
                0x08004dc8        0x2 BSP\cstartup.o
 .text.App_BusFault_ISR
                0x08004dca        0x2 BSP\cstartup.o
 .text.App_UsageFault_ISR
                0x08004dcc        0x2 BSP\cstartup.o
 .text.App_Spurious_ISR
                0x08004dce        0x2 BSP\cstartup.o
 .text.BSP_Ser_Init
                0x08004dd0      0x178 BSP\bsp_ser.o
                0x08004dd0                BSP_Ser_Init
 .text.BSP_Ser_ISR_Handler
                0x08004f48       0x98 BSP\bsp_ser.o
 .text.BSP_Ser_Printf
                0x08004fe0       0x38 BSP\bsp_ser.o
                0x08004fe0                BSP_Ser_Printf
 .text.BSP_Ser_WrByteUnlocked
                0x08005018       0x5c BSP\bsp_ser.o
 .text.BSP_Ser_WrStr
                0x08005074       0x78 BSP\bsp_ser.o
                0x08005074                BSP_Ser_WrStr
 .text.BSP_IntDisAll
                0x080050ec        0xc BSP\bsp_int.o
                0x080050ec                BSP_IntDisAll
 .text.BSP_IntEn
                0x080050f8       0x28 BSP\bsp_int.o
                0x080050f8                BSP_IntEn
 .text.BSP_IntVectSet
                0x08005120       0x3c BSP\bsp_int.o
                0x08005120                BSP_IntVectSet
 .text.BSP_IntHandlerWWDG
                0x0800515c       0x10 BSP\bsp_int.o
                0x0800515c                BSP_IntHandlerWWDG
 .text.BSP_IntHandlerPVD
                0x0800516c       0x10 BSP\bsp_int.o
                0x0800516c                BSP_IntHandlerPVD
 .text.BSP_IntHandlerTAMPER
                0x0800517c       0x10 BSP\bsp_int.o
                0x0800517c                BSP_IntHandlerTAMPER
 .text.BSP_IntHandlerRTC
                0x0800518c       0x10 BSP\bsp_int.o
                0x0800518c                BSP_IntHandlerRTC
 .text.BSP_IntHandlerFLASH
                0x0800519c       0x10 BSP\bsp_int.o
                0x0800519c                BSP_IntHandlerFLASH
 .text.BSP_IntHandlerRCC
                0x080051ac       0x10 BSP\bsp_int.o
                0x080051ac                BSP_IntHandlerRCC
 .text.BSP_IntHandlerEXTI0
                0x080051bc       0x10 BSP\bsp_int.o
                0x080051bc                BSP_IntHandlerEXTI0
 .text.BSP_IntHandlerEXTI1
                0x080051cc       0x10 BSP\bsp_int.o
                0x080051cc                BSP_IntHandlerEXTI1
 .text.BSP_IntHandlerEXTI2
                0x080051dc       0x10 BSP\bsp_int.o
                0x080051dc                BSP_IntHandlerEXTI2
 .text.BSP_IntHandlerEXTI3
                0x080051ec       0x10 BSP\bsp_int.o
                0x080051ec                BSP_IntHandlerEXTI3
 .text.BSP_IntHandlerEXTI4
                0x080051fc       0x10 BSP\bsp_int.o
                0x080051fc                BSP_IntHandlerEXTI4
 .text.BSP_IntHandlerDMA1_CH1
                0x0800520c       0x10 BSP\bsp_int.o
                0x0800520c                BSP_IntHandlerDMA1_CH1
 .text.BSP_IntHandlerDMA1_CH2
                0x0800521c       0x10 BSP\bsp_int.o
                0x0800521c                BSP_IntHandlerDMA1_CH2
 .text.BSP_IntHandlerDMA1_CH3
                0x0800522c       0x10 BSP\bsp_int.o
                0x0800522c                BSP_IntHandlerDMA1_CH3
 .text.BSP_IntHandlerDMA1_CH4
                0x0800523c       0x10 BSP\bsp_int.o
                0x0800523c                BSP_IntHandlerDMA1_CH4
 .text.BSP_IntHandlerDMA1_CH5
                0x0800524c       0x10 BSP\bsp_int.o
                0x0800524c                BSP_IntHandlerDMA1_CH5
 .text.BSP_IntHandlerDMA1_CH6
                0x0800525c       0x10 BSP\bsp_int.o
                0x0800525c                BSP_IntHandlerDMA1_CH6
 .text.BSP_IntHandlerDMA1_CH7
                0x0800526c       0x10 BSP\bsp_int.o
                0x0800526c                BSP_IntHandlerDMA1_CH7
 .text.BSP_IntHandlerADC1_2
                0x0800527c       0x10 BSP\bsp_int.o
                0x0800527c                BSP_IntHandlerADC1_2
 .text.BSP_IntHandlerCAN1_TX
                0x0800528c       0x10 BSP\bsp_int.o
                0x0800528c                BSP_IntHandlerCAN1_TX
 .text.BSP_IntHandlerCAN1_RX0
                0x0800529c       0x10 BSP\bsp_int.o
                0x0800529c                BSP_IntHandlerCAN1_RX0
 .text.BSP_IntHandlerCAN1_RX1
                0x080052ac       0x10 BSP\bsp_int.o
                0x080052ac                BSP_IntHandlerCAN1_RX1
 .text.BSP_IntHandlerCAN1_SCE
                0x080052bc       0x10 BSP\bsp_int.o
                0x080052bc                BSP_IntHandlerCAN1_SCE
 .text.BSP_IntHandlerEXTI9_5
                0x080052cc       0x10 BSP\bsp_int.o
                0x080052cc                BSP_IntHandlerEXTI9_5
 .text.BSP_IntHandlerTIM1_BRK
                0x080052dc       0x10 BSP\bsp_int.o
                0x080052dc                BSP_IntHandlerTIM1_BRK
 .text.BSP_IntHandlerTIM1_UP
                0x080052ec       0x10 BSP\bsp_int.o
                0x080052ec                BSP_IntHandlerTIM1_UP
 .text.BSP_IntHandlerTIM1_TRG_COM
                0x080052fc       0x10 BSP\bsp_int.o
                0x080052fc                BSP_IntHandlerTIM1_TRG_COM
 .text.BSP_IntHandlerTIM1_CC
                0x0800530c       0x10 BSP\bsp_int.o
                0x0800530c                BSP_IntHandlerTIM1_CC
 .text.BSP_IntHandlerTIM2
                0x0800531c       0x10 BSP\bsp_int.o
                0x0800531c                BSP_IntHandlerTIM2
 .text.BSP_IntHandlerTIM3
                0x0800532c       0x10 BSP\bsp_int.o
                0x0800532c                BSP_IntHandlerTIM3
 .text.BSP_IntHandlerTIM4
                0x0800533c       0x10 BSP\bsp_int.o
                0x0800533c                BSP_IntHandlerTIM4
 .text.BSP_IntHandlerI2C1_EV
                0x0800534c       0x10 BSP\bsp_int.o
                0x0800534c                BSP_IntHandlerI2C1_EV
 .text.BSP_IntHandlerI2C1_ER
                0x0800535c       0x10 BSP\bsp_int.o
                0x0800535c                BSP_IntHandlerI2C1_ER
 .text.BSP_IntHandlerI2C2_EV
                0x0800536c       0x10 BSP\bsp_int.o
                0x0800536c                BSP_IntHandlerI2C2_EV
 .text.BSP_IntHandlerI2C2_ER
                0x0800537c       0x10 BSP\bsp_int.o
                0x0800537c                BSP_IntHandlerI2C2_ER
 .text.BSP_IntHandlerSPI1
                0x0800538c       0x10 BSP\bsp_int.o
                0x0800538c                BSP_IntHandlerSPI1
 .text.BSP_IntHandlerSPI2
                0x0800539c       0x10 BSP\bsp_int.o
                0x0800539c                BSP_IntHandlerSPI2
 .text.BSP_IntHandlerUSART1
                0x080053ac       0x10 BSP\bsp_int.o
                0x080053ac                BSP_IntHandlerUSART1
 .text.BSP_IntHandlerUSART2
                0x080053bc       0x10 BSP\bsp_int.o
                0x080053bc                BSP_IntHandlerUSART2
 .text.BSP_IntHandlerUSART3
                0x080053cc       0x10 BSP\bsp_int.o
                0x080053cc                BSP_IntHandlerUSART3
 .text.BSP_IntHandlerEXTI15_10
                0x080053dc       0x10 BSP\bsp_int.o
                0x080053dc                BSP_IntHandlerEXTI15_10
 .text.BSP_IntHandlerRTCAlarm
                0x080053ec       0x10 BSP\bsp_int.o
                0x080053ec                BSP_IntHandlerRTCAlarm
 .text.BSP_IntHandlerUSBWakeUp
                0x080053fc       0x10 BSP\bsp_int.o
                0x080053fc                BSP_IntHandlerUSBWakeUp
 .text.BSP_IntHandlerTIM8_BRK_TIM12
                0x0800540c       0x10 BSP\bsp_int.o
                0x0800540c                BSP_IntHandlerTIM8_BRK_TIM12
 .text.BSP_IntHandlerTIM8_UP_TIM13
                0x0800541c       0x10 BSP\bsp_int.o
                0x0800541c                BSP_IntHandlerTIM8_UP_TIM13
 .text.BSP_IntHandlerTIM8_TRG_COM_TIM14
                0x0800542c       0x10 BSP\bsp_int.o
                0x0800542c                BSP_IntHandlerTIM8_TRG_COM_TIM14
 .text.BSP_IntHandlerTIM8_CC
                0x0800543c       0x10 BSP\bsp_int.o
                0x0800543c                BSP_IntHandlerTIM8_CC
 .text.BSP_IntHandlerDMA1_STREAM7
                0x0800544c       0x10 BSP\bsp_int.o
                0x0800544c                BSP_IntHandlerDMA1_STREAM7
 .text.BSP_IntHandlerFSMC
                0x0800545c       0x10 BSP\bsp_int.o
                0x0800545c                BSP_IntHandlerFSMC
 .text.BSP_IntHandlerSDIO
                0x0800546c       0x10 BSP\bsp_int.o
                0x0800546c                BSP_IntHandlerSDIO
 .text.BSP_IntHandlerTIM5
                0x0800547c       0x10 BSP\bsp_int.o
                0x0800547c                BSP_IntHandlerTIM5
 .text.BSP_IntHandlerSPI3
                0x0800548c       0x10 BSP\bsp_int.o
                0x0800548c                BSP_IntHandlerSPI3
 .text.BSP_IntHandlerUSART4
                0x0800549c       0x10 BSP\bsp_int.o
                0x0800549c                BSP_IntHandlerUSART4
 .text.BSP_IntHandlerUSART5
                0x080054ac       0x10 BSP\bsp_int.o
                0x080054ac                BSP_IntHandlerUSART5
 .text.BSP_IntHandlerTIM6
                0x080054bc       0x10 BSP\bsp_int.o
                0x080054bc                BSP_IntHandlerTIM6
 .text.BSP_IntHandlerTIM7
                0x080054cc       0x10 BSP\bsp_int.o
                0x080054cc                BSP_IntHandlerTIM7
 .text.BSP_IntHandlerDMA2_CH1
                0x080054dc       0x10 BSP\bsp_int.o
                0x080054dc                BSP_IntHandlerDMA2_CH1
 .text.BSP_IntHandlerDMA2_CH2
                0x080054ec       0x10 BSP\bsp_int.o
                0x080054ec                BSP_IntHandlerDMA2_CH2
 .text.BSP_IntHandlerDMA2_CH3
                0x080054fc       0x10 BSP\bsp_int.o
                0x080054fc                BSP_IntHandlerDMA2_CH3
 .text.BSP_IntHandlerDMA2_CH4
                0x0800550c       0x10 BSP\bsp_int.o
                0x0800550c                BSP_IntHandlerDMA2_CH4
 .text.BSP_IntHandlerDMA2_CH5
                0x0800551c       0x10 BSP\bsp_int.o
                0x0800551c                BSP_IntHandlerDMA2_CH5
 .text.BSP_IntHandlerETH
                0x0800552c       0x10 BSP\bsp_int.o
                0x0800552c                BSP_IntHandlerETH
 .text.BSP_IntHandlerETHWakeup
                0x0800553c       0x10 BSP\bsp_int.o
                0x0800553c                BSP_IntHandlerETHWakeup
 .text.BSP_IntHandlerCAN2_TX
                0x0800554c       0x10 BSP\bsp_int.o
                0x0800554c                BSP_IntHandlerCAN2_TX
 .text.BSP_IntHandlerCAN2_RX0
                0x0800555c       0x10 BSP\bsp_int.o
                0x0800555c                BSP_IntHandlerCAN2_RX0
 .text.BSP_IntHandlerCAN2_RX1
                0x0800556c       0x10 BSP\bsp_int.o
                0x0800556c                BSP_IntHandlerCAN2_RX1
 .text.BSP_IntHandlerCAN2_SCE
                0x0800557c       0x10 BSP\bsp_int.o
                0x0800557c                BSP_IntHandlerCAN2_SCE
 .text.BSP_IntHandlerOTG
                0x0800558c       0x10 BSP\bsp_int.o
                0x0800558c                BSP_IntHandlerOTG
 .text.BSP_IntHandlerDMA2_CH6
                0x0800559c       0x10 BSP\bsp_int.o
                0x0800559c                BSP_IntHandlerDMA2_CH6
 .text.BSP_IntHandlerDMA2_CH7
                0x080055ac       0x10 BSP\bsp_int.o
                0x080055ac                BSP_IntHandlerDMA2_CH7
 .text.BSP_IntHandlerDMA2_CH8
                0x080055bc       0x10 BSP\bsp_int.o
                0x080055bc                BSP_IntHandlerDMA2_CH8
 .text.BSP_IntHandlerUSART6
                0x080055cc       0x10 BSP\bsp_int.o
                0x080055cc                BSP_IntHandlerUSART6
 .text.BSP_IntHandlerI2C3_EV
                0x080055dc       0x10 BSP\bsp_int.o
                0x080055dc                BSP_IntHandlerI2C3_EV
 .text.BSP_IntHandlerI2C3_ER
                0x080055ec       0x10 BSP\bsp_int.o
                0x080055ec                BSP_IntHandlerI2C3_ER
 .text.BSP_IntHandlerOTG_HS_EP1_OUT
                0x080055fc       0x10 BSP\bsp_int.o
                0x080055fc                BSP_IntHandlerOTG_HS_EP1_OUT
 .text.BSP_IntHandlerOTG_HS_EP1_IN
                0x0800560c       0x10 BSP\bsp_int.o
                0x0800560c                BSP_IntHandlerOTG_HS_EP1_IN
 .text.BSP_IntHandlerOTG_HS_WKUP
                0x0800561c       0x10 BSP\bsp_int.o
                0x0800561c                BSP_IntHandlerOTG_HS_WKUP
 .text.BSP_IntHandlerOTG_HS
                0x0800562c       0x10 BSP\bsp_int.o
                0x0800562c                BSP_IntHandlerOTG_HS
 .text.BSP_IntHandlerDCMI
                0x0800563c       0x10 BSP\bsp_int.o
                0x0800563c                BSP_IntHandlerDCMI
 .text.BSP_IntHandlerCRYP
                0x0800564c       0x10 BSP\bsp_int.o
                0x0800564c                BSP_IntHandlerCRYP
 .text.BSP_IntHandlerHASH_RNG
                0x0800565c       0x10 BSP\bsp_int.o
                0x0800565c                BSP_IntHandlerHASH_RNG
 .text.BSP_IntHandler
                0x0800566c       0x4c BSP\bsp_int.o
 .text.BSP_Init
                0x080056b8        0xc BSP\bsp.o
                0x080056b8                BSP_Init
 .text.BSP_CPU_ClkFreq
                0x080056c4       0x1c BSP\bsp.o
                0x080056c4                BSP_CPU_ClkFreq
 .text.BSP_CPU_TickInit
                0x080056e0       0x30 BSP\bsp.o
                0x080056e0                BSP_CPU_TickInit
 .text.BSP_LED_Init
                0x08005710      0x140 BSP\bsp.o
 .text.BSP_LED_Off
                0x08005850       0x9c BSP\bsp.o
                0x08005850                BSP_LED_Off
 .text.BSP_LED_Toggle
                0x080058ec      0x288 BSP\bsp.o
                0x080058ec                BSP_LED_Toggle
 .text.CPU_TS_TmrInit
                0x08005b74       0x5c BSP\bsp.o
                0x08005b74                CPU_TS_TmrInit
 .text.USART_Init
                0x08005bd0      0x1ac BSP\STM32F2xx\src\stm32f2xx_usart.o
                0x08005bd0                USART_Init
 .text.USART_ClockInit
                0x08005d7c       0x54 BSP\STM32F2xx\src\stm32f2xx_usart.o
                0x08005d7c                USART_ClockInit
 .text.USART_Cmd
                0x08005dd0       0x40 BSP\STM32F2xx\src\stm32f2xx_usart.o
                0x08005dd0                USART_Cmd
 .text.USART_SendData
                0x08005e10       0x28 BSP\STM32F2xx\src\stm32f2xx_usart.o
                0x08005e10                USART_SendData
 .text.USART_ReceiveData
                0x08005e38       0x24 BSP\STM32F2xx\src\stm32f2xx_usart.o
                0x08005e38                USART_ReceiveData
 .text.USART_ITConfig
                0x08005e5c       0xa4 BSP\STM32F2xx\src\stm32f2xx_usart.o
                0x08005e5c                USART_ITConfig
 .text.USART_ClearITPendingBit
                0x08005f00       0x44 BSP\STM32F2xx\src\stm32f2xx_usart.o
                0x08005f00                USART_ClearITPendingBit
 .text.RCC_GetClocksFreq
                0x08005f44      0x1d0 BSP\STM32F2xx\src\stm32f2xx_rcc.o
                0x08005f44                RCC_GetClocksFreq
 .text.RCC_AHB1PeriphClockCmd
                0x08006114       0x58 BSP\STM32F2xx\src\stm32f2xx_rcc.o
                0x08006114                RCC_AHB1PeriphClockCmd
 .text.RCC_APB1PeriphClockCmd
                0x0800616c       0x58 BSP\STM32F2xx\src\stm32f2xx_rcc.o
                0x0800616c                RCC_APB1PeriphClockCmd
 .text.GPIO_Init
                0x080061c4      0x154 BSP\STM32F2xx\src\stm32f2xx_gpio.o
                0x080061c4                GPIO_Init
 .text.GPIO_ReadOutputData
                0x08006318       0x1c BSP\STM32F2xx\src\stm32f2xx_gpio.o
                0x08006318                GPIO_ReadOutputData
 .text.GPIO_SetBits
                0x08006334       0x1c BSP\STM32F2xx\src\stm32f2xx_gpio.o
                0x08006334                GPIO_SetBits
 .text.GPIO_ResetBits
                0x08006350       0x1c BSP\STM32F2xx\src\stm32f2xx_gpio.o
                0x08006350                GPIO_ResetBits
 .text.GPIO_PinAFConfig
                0x0800636c       0xac BSP\STM32F2xx\src\stm32f2xx_gpio.o
                0x0800636c                GPIO_PinAFConfig
 .text.BSP_OS_SemCreate
                0x08006418       0x48 BSP\OS\bsp_os.o
                0x08006418                BSP_OS_SemCreate
 .text.BSP_OS_SemWait
                0x08006460       0x54 BSP\OS\bsp_os.o
                0x08006460                BSP_OS_SemWait
 .text.BSP_OS_SemPost
                0x080064b4       0x30 BSP\OS\bsp_os.o
                0x080064b4                BSP_OS_SemPost
 .text.SystemInit
                0x080064e4       0x94 BSP\CMSIS\Device_Support\system_stm32f2xx.o
                0x080064e4                SystemInit
 .text.SetSysClock
                0x08006578      0x154 BSP\CMSIS\Device_Support\system_stm32f2xx.o
 .text.App_TaskCreateHook
                0x080066cc       0x14 APP\app_hooks.o
                0x080066cc                App_TaskCreateHook
 .text.App_TaskDelHook
                0x080066e0       0x14 APP\app_hooks.o
                0x080066e0                App_TaskDelHook
 .text.App_TaskIdleHook
                0x080066f4        0xc APP\app_hooks.o
                0x080066f4                App_TaskIdleHook
 .text.App_TaskStatHook
                0x08006700        0xc APP\app_hooks.o
                0x08006700                App_TaskStatHook
 .text.App_TaskReturnHook
                0x0800670c       0x14 APP\app_hooks.o
                0x0800670c                App_TaskReturnHook
 .text.App_TaskSwHook
                0x08006720        0xc APP\app_hooks.o
                0x08006720                App_TaskSwHook
 .text.App_TCBInitHook
                0x0800672c       0x14 APP\app_hooks.o
                0x0800672c                App_TCBInitHook
 .text.App_TimeTickHook
                0x08006740        0xc APP\app_hooks.o
                0x08006740                App_TimeTickHook
 .text.main     0x0800674c       0x78 APP\app.o
                0x0800674c                main
 .text.AppTaskStart
                0x080067c4       0x6c APP\app.o
 .text.AppEventCreate
                0x08006830        0xc APP\app.o
 .text.AppTaskCreate
                0x0800683c        0xc APP\app.o
 .text.__libc_init_array
                0x08006848       0x48 c:/program files (x86)/atollic/truestudio for arm pro 3.2.0/armtools/bin/../lib/gcc/arm-atollic-eabi/4.6.2/../../../../arm-atollic-eabi/lib/thumb/softfp/armv7e-m/fpv4-sp-d16\libc.a(lib_a-init.o)
                0x08006848                __libc_init_array
 .text._vsnprintf_r
                0x08006890       0x56 c:/program files (x86)/atollic/truestudio for arm pro 3.2.0/armtools/bin/../lib/gcc/arm-atollic-eabi/4.6.2/../../../../arm-atollic-eabi/lib/thumb/softfp/armv7e-m/fpv4-sp-d16\libc.a(lib_a-vsnprintf.o)
                0x08006890                _vsnprintf_r
 *fill*         0x080068e6        0x2 00
 .text.vsnprintf
                0x080068e8       0x20 c:/program files (x86)/atollic/truestudio for arm pro 3.2.0/armtools/bin/../lib/gcc/arm-atollic-eabi/4.6.2/../../../../arm-atollic-eabi/lib/thumb/softfp/armv7e-m/fpv4-sp-d16\libc.a(lib_a-vsnprintf.o)
                0x080068e8                vsnprintf
 .text._svfprintf_r
                0x08006908     0x1030 c:/program files (x86)/atollic/truestudio for arm pro 3.2.0/armtools/bin/../lib/gcc/arm-atollic-eabi/4.6.2/../../../../arm-atollic-eabi/lib/thumb/softfp/armv7e-m/fpv4-sp-d16\libc.a(lib_a-svfprintf.o)
                0x08006908                _svfprintf_r
 .text.quorem   0x08007938      0x10e c:/program files (x86)/atollic/truestudio for arm pro 3.2.0/armtools/bin/../lib/gcc/arm-atollic-eabi/4.6.2/../../../../arm-atollic-eabi/lib/thumb/softfp/armv7e-m/fpv4-sp-d16\libc.a(lib_a-dtoa.o)
 *fill*         0x08007a46        0x2 00
 .text._dtoa_r  0x08007a48      0xb58 c:/program files (x86)/atollic/truestudio for arm pro 3.2.0/armtools/bin/../lib/gcc/arm-atollic-eabi/4.6.2/../../../../arm-atollic-eabi/lib/thumb/softfp/armv7e-m/fpv4-sp-d16\libc.a(lib_a-dtoa.o)
                0x08007a48                _dtoa_r
 .text._localeconv_r
                0x080085a0        0x8 c:/program files (x86)/atollic/truestudio for arm pro 3.2.0/armtools/bin/../lib/gcc/arm-atollic-eabi/4.6.2/../../../../arm-atollic-eabi/lib/thumb/softfp/armv7e-m/fpv4-sp-d16\libc.a(lib_a-locale.o)
                0x080085a0                _localeconv_r
 .text.malloc   0x080085a8       0x10 c:/program files (x86)/atollic/truestudio for arm pro 3.2.0/armtools/bin/../lib/gcc/arm-atollic-eabi/4.6.2/../../../../arm-atollic-eabi/lib/thumb/softfp/armv7e-m/fpv4-sp-d16\libc.a(lib_a-malloc.o)
                0x080085a8                malloc
 .text._malloc_r
                0x080085b8      0x3f8 c:/program files (x86)/atollic/truestudio for arm pro 3.2.0/armtools/bin/../lib/gcc/arm-atollic-eabi/4.6.2/../../../../arm-atollic-eabi/lib/thumb/softfp/armv7e-m/fpv4-sp-d16\libc.a(lib_a-mallocr.o)
                0x080085b8                _malloc_r
 .text.memchr   0x080089b0       0x1c c:/program files (x86)/atollic/truestudio for arm pro 3.2.0/armtools/bin/../lib/gcc/arm-atollic-eabi/4.6.2/../../../../arm-atollic-eabi/lib/thumb/softfp/armv7e-m/fpv4-sp-d16\libc.a(lib_a-memchr.o)
                0x080089b0                memchr
 .text.memcpy   0x080089cc       0x12 c:/program files (x86)/atollic/truestudio for arm pro 3.2.0/armtools/bin/../lib/gcc/arm-atollic-eabi/4.6.2/../../../../arm-atollic-eabi/lib/thumb/softfp/armv7e-m/fpv4-sp-d16\libc.a(lib_a-memcpy.o)
                0x080089cc                memcpy
 .text.__malloc_lock
                0x080089de        0x2 c:/program files (x86)/atollic/truestudio for arm pro 3.2.0/armtools/bin/../lib/gcc/arm-atollic-eabi/4.6.2/../../../../arm-atollic-eabi/lib/thumb/softfp/armv7e-m/fpv4-sp-d16\libc.a(lib_a-mlock.o)
                0x080089de                __malloc_lock
 .text.__malloc_unlock
                0x080089e0        0x2 c:/program files (x86)/atollic/truestudio for arm pro 3.2.0/armtools/bin/../lib/gcc/arm-atollic-eabi/4.6.2/../../../../arm-atollic-eabi/lib/thumb/softfp/armv7e-m/fpv4-sp-d16\libc.a(lib_a-mlock.o)
                0x080089e0                __malloc_unlock
 .text._Balloc  0x080089e2       0x62 c:/program files (x86)/atollic/truestudio for arm pro 3.2.0/armtools/bin/../lib/gcc/arm-atollic-eabi/4.6.2/../../../../arm-atollic-eabi/lib/thumb/softfp/armv7e-m/fpv4-sp-d16\libc.a(lib_a-mprec.o)
                0x080089e2                _Balloc
 .text._Bfree   0x08008a44       0x2e c:/program files (x86)/atollic/truestudio for arm pro 3.2.0/armtools/bin/../lib/gcc/arm-atollic-eabi/4.6.2/../../../../arm-atollic-eabi/lib/thumb/softfp/armv7e-m/fpv4-sp-d16\libc.a(lib_a-mprec.o)
                0x08008a44                _Bfree
 .text.__multadd
                0x08008a72       0x78 c:/program files (x86)/atollic/truestudio for arm pro 3.2.0/armtools/bin/../lib/gcc/arm-atollic-eabi/4.6.2/../../../../arm-atollic-eabi/lib/thumb/softfp/armv7e-m/fpv4-sp-d16\libc.a(lib_a-mprec.o)
                0x08008a72                __multadd
 .text.__hi0bits
                0x08008aea       0x3e c:/program files (x86)/atollic/truestudio for arm pro 3.2.0/armtools/bin/../lib/gcc/arm-atollic-eabi/4.6.2/../../../../arm-atollic-eabi/lib/thumb/softfp/armv7e-m/fpv4-sp-d16\libc.a(lib_a-mprec.o)
                0x08008aea                __hi0bits
 .text.__lo0bits
                0x08008b28       0x5a c:/program files (x86)/atollic/truestudio for arm pro 3.2.0/armtools/bin/../lib/gcc/arm-atollic-eabi/4.6.2/../../../../arm-atollic-eabi/lib/thumb/softfp/armv7e-m/fpv4-sp-d16\libc.a(lib_a-mprec.o)
                0x08008b28                __lo0bits
 .text.__i2b    0x08008b82       0x12 c:/program files (x86)/atollic/truestudio for arm pro 3.2.0/armtools/bin/../lib/gcc/arm-atollic-eabi/4.6.2/../../../../arm-atollic-eabi/lib/thumb/softfp/armv7e-m/fpv4-sp-d16\libc.a(lib_a-mprec.o)
                0x08008b82                __i2b
 .text.__multiply
                0x08008b94      0x126 c:/program files (x86)/atollic/truestudio for arm pro 3.2.0/armtools/bin/../lib/gcc/arm-atollic-eabi/4.6.2/../../../../arm-atollic-eabi/lib/thumb/softfp/armv7e-m/fpv4-sp-d16\libc.a(lib_a-mprec.o)
                0x08008b94                __multiply
 *fill*         0x08008cba        0x2 00
 .text.__pow5mult
                0x08008cbc       0xa0 c:/program files (x86)/atollic/truestudio for arm pro 3.2.0/armtools/bin/../lib/gcc/arm-atollic-eabi/4.6.2/../../../../arm-atollic-eabi/lib/thumb/softfp/armv7e-m/fpv4-sp-d16\libc.a(lib_a-mprec.o)
                0x08008cbc                __pow5mult
 .text.__lshift
                0x08008d5c       0xae c:/program files (x86)/atollic/truestudio for arm pro 3.2.0/armtools/bin/../lib/gcc/arm-atollic-eabi/4.6.2/../../../../arm-atollic-eabi/lib/thumb/softfp/armv7e-m/fpv4-sp-d16\libc.a(lib_a-mprec.o)
                0x08008d5c                __lshift
 .text.__mcmp   0x08008e0a       0x3e c:/program files (x86)/atollic/truestudio for arm pro 3.2.0/armtools/bin/../lib/gcc/arm-atollic-eabi/4.6.2/../../../../arm-atollic-eabi/lib/thumb/softfp/armv7e-m/fpv4-sp-d16\libc.a(lib_a-mprec.o)
                0x08008e0a                __mcmp
 .text.__mdiff  0x08008e48       0xc6 c:/program files (x86)/atollic/truestudio for arm pro 3.2.0/armtools/bin/../lib/gcc/arm-atollic-eabi/4.6.2/../../../../arm-atollic-eabi/lib/thumb/softfp/armv7e-m/fpv4-sp-d16\libc.a(lib_a-mprec.o)
                0x08008e48                __mdiff
 .text.__d2b    0x08008f0e       0xbc c:/program files (x86)/atollic/truestudio for arm pro 3.2.0/armtools/bin/../lib/gcc/arm-atollic-eabi/4.6.2/../../../../arm-atollic-eabi/lib/thumb/softfp/armv7e-m/fpv4-sp-d16\libc.a(lib_a-mprec.o)
                0x08008f0e                __d2b
 *fill*         0x08008fca        0x2 00
 .text.__fpclassifyd
                0x08008fcc       0x64 c:/program files (x86)/atollic/truestudio for arm pro 3.2.0/armtools/bin/../lib/gcc/arm-atollic-eabi/4.6.2/../../../../arm-atollic-eabi/lib/thumb/softfp/armv7e-m/fpv4-sp-d16\libc.a(lib_a-s_fpclassify.o)
                0x08008fcc                __fpclassifyd
 .text._sbrk_r  0x08009030       0x20 c:/program files (x86)/atollic/truestudio for arm pro 3.2.0/armtools/bin/../lib/gcc/arm-atollic-eabi/4.6.2/../../../../arm-atollic-eabi/lib/thumb/softfp/armv7e-m/fpv4-sp-d16\libc.a(lib_a-sbrkr.o)
                0x08009030                _sbrk_r
 .text.strlen   0x08009050       0x10 c:/program files (x86)/atollic/truestudio for arm pro 3.2.0/armtools/bin/../lib/gcc/arm-atollic-eabi/4.6.2/../../../../arm-atollic-eabi/lib/thumb/softfp/armv7e-m/fpv4-sp-d16\libc.a(lib_a-strlen.o)
                0x08009050                strlen
 .text.__ssprint_r
                0x08009060       0xf2 c:/program files (x86)/atollic/truestudio for arm pro 3.2.0/armtools/bin/../lib/gcc/arm-atollic-eabi/4.6.2/../../../../arm-atollic-eabi/lib/thumb/softfp/armv7e-m/fpv4-sp-d16\libc.a(lib_a-svfiprintf.o)
                0x08009060                __ssprint_r
 .text._getpid  0x08009152        0x4 c:/program files (x86)/atollic/truestudio for arm pro 3.2.0/armtools/bin/../lib/gcc/arm-atollic-eabi/4.6.2/../../../../arm-atollic-eabi/lib/thumb/softfp/armv7e-m/fpv4-sp-d16\libc.a(lib_a-syscalls.o)
                0x08009152                _getpid
 *fill*         0x08009156        0x2 00
 .text._kill    0x08009158       0x10 c:/program files (x86)/atollic/truestudio for arm pro 3.2.0/armtools/bin/../lib/gcc/arm-atollic-eabi/4.6.2/../../../../arm-atollic-eabi/lib/thumb/softfp/armv7e-m/fpv4-sp-d16\libc.a(lib_a-syscalls.o)
                0x08009158                _kill
 .text._exit    0x08009168        0xc c:/program files (x86)/atollic/truestudio for arm pro 3.2.0/armtools/bin/../lib/gcc/arm-atollic-eabi/4.6.2/../../../../arm-atollic-eabi/lib/thumb/softfp/armv7e-m/fpv4-sp-d16\libc.a(lib_a-syscalls.o)
                0x08009168                _exit
 .text._sbrk    0x08009174       0x34 c:/program files (x86)/atollic/truestudio for arm pro 3.2.0/armtools/bin/../lib/gcc/arm-atollic-eabi/4.6.2/../../../../arm-atollic-eabi/lib/thumb/softfp/armv7e-m/fpv4-sp-d16\libc.a(lib_a-syscalls.o)
                0x08009174                _sbrk
 .text._calloc_r
                0x080091a8       0x5a c:/program files (x86)/atollic/truestudio for arm pro 3.2.0/armtools/bin/../lib/gcc/arm-atollic-eabi/4.6.2/../../../../arm-atollic-eabi/lib/thumb/softfp/armv7e-m/fpv4-sp-d16\libc.a(lib_a-callocr.o)
                0x080091a8                _calloc_r
 *fill*         0x08009202        0x2 00
 .text._malloc_trim_r
                0x08009204       0xa8 c:/program files (x86)/atollic/truestudio for arm pro 3.2.0/armtools/bin/../lib/gcc/arm-atollic-eabi/4.6.2/../../../../arm-atollic-eabi/lib/thumb/softfp/armv7e-m/fpv4-sp-d16\libc.a(lib_a-freer.o)
                0x08009204                _malloc_trim_r
 .text._free_r  0x080092ac      0x16c c:/program files (x86)/atollic/truestudio for arm pro 3.2.0/armtools/bin/../lib/gcc/arm-atollic-eabi/4.6.2/../../../../arm-atollic-eabi/lib/thumb/softfp/armv7e-m/fpv4-sp-d16\libc.a(lib_a-freer.o)
                0x080092ac                _free_r
 .text.memmove  0x08009418       0x3a c:/program files (x86)/atollic/truestudio for arm pro 3.2.0/armtools/bin/../lib/gcc/arm-atollic-eabi/4.6.2/../../../../arm-atollic-eabi/lib/thumb/softfp/armv7e-m/fpv4-sp-d16\libc.a(lib_a-memmove.o)
                0x08009418                memmove
 .text.memset   0x08009452        0xe c:/program files (x86)/atollic/truestudio for arm pro 3.2.0/armtools/bin/../lib/gcc/arm-atollic-eabi/4.6.2/../../../../arm-atollic-eabi/lib/thumb/softfp/armv7e-m/fpv4-sp-d16\libc.a(lib_a-memset.o)
                0x08009452                memset
 .text._realloc_r
                0x08009460      0x2dc c:/program files (x86)/atollic/truestudio for arm pro 3.2.0/armtools/bin/../lib/gcc/arm-atollic-eabi/4.6.2/../../../../arm-atollic-eabi/lib/thumb/softfp/armv7e-m/fpv4-sp-d16\libc.a(lib_a-reallocr.o)
                0x08009460                _realloc_r
 .text.abort    0x0800973c        0xe c:/program files (x86)/atollic/truestudio for arm pro 3.2.0/armtools/bin/../lib/gcc/arm-atollic-eabi/4.6.2/../../../../arm-atollic-eabi/lib/thumb/softfp/armv7e-m/fpv4-sp-d16\libc.a(lib_a-abort.o)
                0x0800973c                abort
 .text._raise_r
                0x0800974a       0x54 c:/program files (x86)/atollic/truestudio for arm pro 3.2.0/armtools/bin/../lib/gcc/arm-atollic-eabi/4.6.2/../../../../arm-atollic-eabi/lib/thumb/softfp/armv7e-m/fpv4-sp-d16\libc.a(lib_a-signal.o)
                0x0800974a                _raise_r
 *fill*         0x0800979e        0x2 00
 .text.raise    0x080097a0       0x10 c:/program files (x86)/atollic/truestudio for arm pro 3.2.0/armtools/bin/../lib/gcc/arm-atollic-eabi/4.6.2/../../../../arm-atollic-eabi/lib/thumb/softfp/armv7e-m/fpv4-sp-d16\libc.a(lib_a-signal.o)
                0x080097a0                raise
 .text._kill_r  0x080097b0       0x24 c:/program files (x86)/atollic/truestudio for arm pro 3.2.0/armtools/bin/../lib/gcc/arm-atollic-eabi/4.6.2/../../../../arm-atollic-eabi/lib/thumb/softfp/armv7e-m/fpv4-sp-d16\libc.a(lib_a-signalr.o)
                0x080097b0                _kill_r
 .text._getpid_r
                0x080097d4        0x4 c:/program files (x86)/atollic/truestudio for arm pro 3.2.0/armtools/bin/../lib/gcc/arm-atollic-eabi/4.6.2/../../../../arm-atollic-eabi/lib/thumb/softfp/armv7e-m/fpv4-sp-d16\libc.a(lib_a-signalr.o)
                0x080097d4                _getpid_r
 *(.rodata)
 .rodata        0x080097d8       0x3c uCOS-II\Source\os_tmr.o
 .rodata        0x08009814        0x4 uCOS-II\Source\os_task.o
 .rodata        0x08009818        0x4 uCOS-II\Source\os_sem.o
 .rodata        0x0800981c        0x4 uCOS-II\Source\os_mem.o
 .rodata        0x08009820        0x4 uCOS-II\Source\os_flag.o
 .rodata        0x08009824       0x24 uCOS-II\Source\os_core.o
 .rodata        0x08009848       0x2c BSP\bsp_ser.o
 .rodata        0x08009874       0x4c APP\app.o
 *(.rodata*)
 .rodata.OSUnMapTbl
                0x080098c0      0x100 uCOS-II\Source\os_core.o
                0x080098c0                OSUnMapTbl
 .rodata.OSDebugEn
                0x080099c0        0x2 uCOS-II\Ports\ARM-Cortex-M3\Generic\GNU\os_dbg.o
                0x080099c0                OSDebugEn
 *fill*         0x080099c2        0x2 00
 .rodata.OSEndiannessTest
                0x080099c4        0x4 uCOS-II\Ports\ARM-Cortex-M3\Generic\GNU\os_dbg.o
                0x080099c4                OSEndiannessTest
 .rodata.OSEventEn
                0x080099c8        0x2 uCOS-II\Ports\ARM-Cortex-M3\Generic\GNU\os_dbg.o
                0x080099c8                OSEventEn
 .rodata.OSEventMax
                0x080099ca        0x2 uCOS-II\Ports\ARM-Cortex-M3\Generic\GNU\os_dbg.o
                0x080099ca                OSEventMax
 .rodata.OSEventNameEn
                0x080099cc        0x2 uCOS-II\Ports\ARM-Cortex-M3\Generic\GNU\os_dbg.o
                0x080099cc                OSEventNameEn
 .rodata.OSEventSize
                0x080099ce        0x2 uCOS-II\Ports\ARM-Cortex-M3\Generic\GNU\os_dbg.o
                0x080099ce                OSEventSize
 .rodata.OSEventTblSize
                0x080099d0        0x2 uCOS-II\Ports\ARM-Cortex-M3\Generic\GNU\os_dbg.o
                0x080099d0                OSEventTblSize
 .rodata.OSEventMultiEn
                0x080099d2        0x2 uCOS-II\Ports\ARM-Cortex-M3\Generic\GNU\os_dbg.o
                0x080099d2                OSEventMultiEn
 .rodata.OSFlagEn
                0x080099d4        0x2 uCOS-II\Ports\ARM-Cortex-M3\Generic\GNU\os_dbg.o
                0x080099d4                OSFlagEn
 .rodata.OSFlagGrpSize
                0x080099d6        0x2 uCOS-II\Ports\ARM-Cortex-M3\Generic\GNU\os_dbg.o
                0x080099d6                OSFlagGrpSize
 .rodata.OSFlagNodeSize
                0x080099d8        0x2 uCOS-II\Ports\ARM-Cortex-M3\Generic\GNU\os_dbg.o
                0x080099d8                OSFlagNodeSize
 .rodata.OSFlagWidth
                0x080099da        0x2 uCOS-II\Ports\ARM-Cortex-M3\Generic\GNU\os_dbg.o
                0x080099da                OSFlagWidth
 .rodata.OSFlagMax
                0x080099dc        0x2 uCOS-II\Ports\ARM-Cortex-M3\Generic\GNU\os_dbg.o
                0x080099dc                OSFlagMax
 .rodata.OSFlagNameEn
                0x080099de        0x2 uCOS-II\Ports\ARM-Cortex-M3\Generic\GNU\os_dbg.o
                0x080099de                OSFlagNameEn
 .rodata.OSLowestPrio
                0x080099e0        0x2 uCOS-II\Ports\ARM-Cortex-M3\Generic\GNU\os_dbg.o
                0x080099e0                OSLowestPrio
 .rodata.OSMboxEn
                0x080099e2        0x2 uCOS-II\Ports\ARM-Cortex-M3\Generic\GNU\os_dbg.o
                0x080099e2                OSMboxEn
 .rodata.OSMemEn
                0x080099e4        0x2 uCOS-II\Ports\ARM-Cortex-M3\Generic\GNU\os_dbg.o
                0x080099e4                OSMemEn
 .rodata.OSMemMax
                0x080099e6        0x2 uCOS-II\Ports\ARM-Cortex-M3\Generic\GNU\os_dbg.o
                0x080099e6                OSMemMax
 .rodata.OSMemNameEn
                0x080099e8        0x2 uCOS-II\Ports\ARM-Cortex-M3\Generic\GNU\os_dbg.o
                0x080099e8                OSMemNameEn
 .rodata.OSMemSize
                0x080099ea        0x2 uCOS-II\Ports\ARM-Cortex-M3\Generic\GNU\os_dbg.o
                0x080099ea                OSMemSize
 .rodata.OSMemTblSize
                0x080099ec        0x2 uCOS-II\Ports\ARM-Cortex-M3\Generic\GNU\os_dbg.o
                0x080099ec                OSMemTblSize
 .rodata.OSMutexEn
                0x080099ee        0x2 uCOS-II\Ports\ARM-Cortex-M3\Generic\GNU\os_dbg.o
                0x080099ee                OSMutexEn
 .rodata.OSPtrSize
                0x080099f0        0x2 uCOS-II\Ports\ARM-Cortex-M3\Generic\GNU\os_dbg.o
                0x080099f0                OSPtrSize
 .rodata.OSQEn  0x080099f2        0x2 uCOS-II\Ports\ARM-Cortex-M3\Generic\GNU\os_dbg.o
                0x080099f2                OSQEn
 .rodata.OSQMax
                0x080099f4        0x2 uCOS-II\Ports\ARM-Cortex-M3\Generic\GNU\os_dbg.o
                0x080099f4                OSQMax
 .rodata.OSQSize
                0x080099f6        0x2 uCOS-II\Ports\ARM-Cortex-M3\Generic\GNU\os_dbg.o
                0x080099f6                OSQSize
 .rodata.OSRdyTblSize
                0x080099f8        0x2 uCOS-II\Ports\ARM-Cortex-M3\Generic\GNU\os_dbg.o
                0x080099f8                OSRdyTblSize
 .rodata.OSSemEn
                0x080099fa        0x2 uCOS-II\Ports\ARM-Cortex-M3\Generic\GNU\os_dbg.o
                0x080099fa                OSSemEn
 .rodata.OSStkWidth
                0x080099fc        0x2 uCOS-II\Ports\ARM-Cortex-M3\Generic\GNU\os_dbg.o
                0x080099fc                OSStkWidth
 .rodata.OSTaskCreateEn
                0x080099fe        0x2 uCOS-II\Ports\ARM-Cortex-M3\Generic\GNU\os_dbg.o
                0x080099fe                OSTaskCreateEn
 .rodata.OSTaskCreateExtEn
                0x08009a00        0x2 uCOS-II\Ports\ARM-Cortex-M3\Generic\GNU\os_dbg.o
                0x08009a00                OSTaskCreateExtEn
 .rodata.OSTaskDelEn
                0x08009a02        0x2 uCOS-II\Ports\ARM-Cortex-M3\Generic\GNU\os_dbg.o
                0x08009a02                OSTaskDelEn
 .rodata.OSTaskIdleStkSize
                0x08009a04        0x2 uCOS-II\Ports\ARM-Cortex-M3\Generic\GNU\os_dbg.o
                0x08009a04                OSTaskIdleStkSize
 .rodata.OSTaskProfileEn
                0x08009a06        0x2 uCOS-II\Ports\ARM-Cortex-M3\Generic\GNU\os_dbg.o
                0x08009a06                OSTaskProfileEn
 .rodata.OSTaskMax
                0x08009a08        0x2 uCOS-II\Ports\ARM-Cortex-M3\Generic\GNU\os_dbg.o
                0x08009a08                OSTaskMax
 .rodata.OSTaskNameEn
                0x08009a0a        0x2 uCOS-II\Ports\ARM-Cortex-M3\Generic\GNU\os_dbg.o
                0x08009a0a                OSTaskNameEn
 .rodata.OSTaskStatEn
                0x08009a0c        0x2 uCOS-II\Ports\ARM-Cortex-M3\Generic\GNU\os_dbg.o
                0x08009a0c                OSTaskStatEn
 .rodata.OSTaskStatStkSize
                0x08009a0e        0x2 uCOS-II\Ports\ARM-Cortex-M3\Generic\GNU\os_dbg.o
                0x08009a0e                OSTaskStatStkSize
 .rodata.OSTaskStatStkChkEn
                0x08009a10        0x2 uCOS-II\Ports\ARM-Cortex-M3\Generic\GNU\os_dbg.o
                0x08009a10                OSTaskStatStkChkEn
 .rodata.OSTaskSwHookEn
                0x08009a12        0x2 uCOS-II\Ports\ARM-Cortex-M3\Generic\GNU\os_dbg.o
                0x08009a12                OSTaskSwHookEn
 .rodata.OSTCBPrioTblMax
                0x08009a14        0x2 uCOS-II\Ports\ARM-Cortex-M3\Generic\GNU\os_dbg.o
                0x08009a14                OSTCBPrioTblMax
 .rodata.OSTCBSize
                0x08009a16        0x2 uCOS-II\Ports\ARM-Cortex-M3\Generic\GNU\os_dbg.o
                0x08009a16                OSTCBSize
 .rodata.OSTicksPerSec
                0x08009a18        0x2 uCOS-II\Ports\ARM-Cortex-M3\Generic\GNU\os_dbg.o
                0x08009a18                OSTicksPerSec
 .rodata.OSTimeTickHookEn
                0x08009a1a        0x2 uCOS-II\Ports\ARM-Cortex-M3\Generic\GNU\os_dbg.o
                0x08009a1a                OSTimeTickHookEn
 .rodata.OSVersionNbr
                0x08009a1c        0x2 uCOS-II\Ports\ARM-Cortex-M3\Generic\GNU\os_dbg.o
                0x08009a1c                OSVersionNbr
 .rodata.OSTmrEn
                0x08009a1e        0x2 uCOS-II\Ports\ARM-Cortex-M3\Generic\GNU\os_dbg.o
                0x08009a1e                OSTmrEn
 .rodata.OSTmrCfgMax
                0x08009a20        0x2 uCOS-II\Ports\ARM-Cortex-M3\Generic\GNU\os_dbg.o
                0x08009a20                OSTmrCfgMax
 .rodata.OSTmrCfgNameEn
                0x08009a22        0x2 uCOS-II\Ports\ARM-Cortex-M3\Generic\GNU\os_dbg.o
                0x08009a22                OSTmrCfgNameEn
 .rodata.OSTmrCfgWheelSize
                0x08009a24        0x2 uCOS-II\Ports\ARM-Cortex-M3\Generic\GNU\os_dbg.o
                0x08009a24                OSTmrCfgWheelSize
 .rodata.OSTmrCfgTicksPerSec
                0x08009a26        0x2 uCOS-II\Ports\ARM-Cortex-M3\Generic\GNU\os_dbg.o
                0x08009a26                OSTmrCfgTicksPerSec
 .rodata.OSTmrSize
                0x08009a28        0x2 uCOS-II\Ports\ARM-Cortex-M3\Generic\GNU\os_dbg.o
                0x08009a28                OSTmrSize
 .rodata.OSTmrTblSize
                0x08009a2a        0x2 uCOS-II\Ports\ARM-Cortex-M3\Generic\GNU\os_dbg.o
                0x08009a2a                OSTmrTblSize
 .rodata.OSTmrWheelSize
                0x08009a2c        0x2 uCOS-II\Ports\ARM-Cortex-M3\Generic\GNU\os_dbg.o
                0x08009a2c                OSTmrWheelSize
 .rodata.OSTmrWheelTblSize
                0x08009a2e        0x2 uCOS-II\Ports\ARM-Cortex-M3\Generic\GNU\os_dbg.o
                0x08009a2e                OSTmrWheelTblSize
 .rodata.OSDataSize
                0x08009a30        0x2 uCOS-II\Ports\ARM-Cortex-M3\Generic\GNU\os_dbg.o
                0x08009a30                OSDataSize
 *fill*         0x08009a32        0x2 00
 .rodata.GPIO_PIN
                0x08009a34        0x8 BSP\bsp.o
                0x08009a34                GPIO_PIN
 .rodata.GPIO_CLK
                0x08009a3c       0x10 BSP\bsp.o
                0x08009a3c                GPIO_CLK
 .rodata.str1.1
                0x08009a4c        0x2 c:/program files (x86)/atollic/truestudio for arm pro 3.2.0/armtools/bin/../lib/gcc/arm-atollic-eabi/4.6.2/../../../../arm-atollic-eabi/lib/thumb/softfp/armv7e-m/fpv4-sp-d16\libc.a(lib_a-impure.o)
 .rodata.zeroes.6598
                0x08009a4e       0x10 c:/program files (x86)/atollic/truestudio for arm pro 3.2.0/armtools/bin/../lib/gcc/arm-atollic-eabi/4.6.2/../../../../arm-atollic-eabi/lib/thumb/softfp/armv7e-m/fpv4-sp-d16\libc.a(lib_a-svfprintf.o)
 .rodata.str1.1
                0x08009a5e       0x34 c:/program files (x86)/atollic/truestudio for arm pro 3.2.0/armtools/bin/../lib/gcc/arm-atollic-eabi/4.6.2/../../../../arm-atollic-eabi/lib/thumb/softfp/armv7e-m/fpv4-sp-d16\libc.a(lib_a-svfprintf.o)
 .rodata.blanks.6597
                0x08009a92       0x10 c:/program files (x86)/atollic/truestudio for arm pro 3.2.0/armtools/bin/../lib/gcc/arm-atollic-eabi/4.6.2/../../../../arm-atollic-eabi/lib/thumb/softfp/armv7e-m/fpv4-sp-d16\libc.a(lib_a-svfprintf.o)
 .rodata.str1.1
                0x08009aa2        0xd c:/program files (x86)/atollic/truestudio for arm pro 3.2.0/armtools/bin/../lib/gcc/arm-atollic-eabi/4.6.2/../../../../arm-atollic-eabi/lib/thumb/softfp/armv7e-m/fpv4-sp-d16\libc.a(lib_a-dtoa.o)
                                  0xf (size before relaxing)
 .rodata.str1.1
                0x08009aaf        0x8 c:/program files (x86)/atollic/truestudio for arm pro 3.2.0/armtools/bin/../lib/gcc/arm-atollic-eabi/4.6.2/../../../../arm-atollic-eabi/lib/thumb/softfp/armv7e-m/fpv4-sp-d16\libc.a(lib_a-locale.o)
                                  0xb (size before relaxing)
 *fill*         0x08009ab7        0x1 00
 .rodata.p05.5123
                0x08009ab8        0xc c:/program files (x86)/atollic/truestudio for arm pro 3.2.0/armtools/bin/../lib/gcc/arm-atollic-eabi/4.6.2/../../../../arm-atollic-eabi/lib/thumb/softfp/armv7e-m/fpv4-sp-d16\libc.a(lib_a-mprec.o)
 *fill*         0x08009ac4        0x4 00
 .rodata.__mprec_tens
                0x08009ac8       0xc8 c:/program files (x86)/atollic/truestudio for arm pro 3.2.0/armtools/bin/../lib/gcc/arm-atollic-eabi/4.6.2/../../../../arm-atollic-eabi/lib/thumb/softfp/armv7e-m/fpv4-sp-d16\libc.a(lib_a-mprec.o)
                0x08009ac8                __mprec_tens
 .rodata.__mprec_bigtens
                0x08009b90       0x28 c:/program files (x86)/atollic/truestudio for arm pro 3.2.0/armtools/bin/../lib/gcc/arm-atollic-eabi/4.6.2/../../../../arm-atollic-eabi/lib/thumb/softfp/armv7e-m/fpv4-sp-d16\libc.a(lib_a-mprec.o)
                0x08009b90                __mprec_bigtens
 *(.glue_7)
 .glue_7        0x00000000        0x0 linker stubs
 *(.glue_7t)
 .glue_7t       0x00000000        0x0 linker stubs
 *(.eh_frame)
 .eh_frame      0x08009bb8        0x0 c:/program files (x86)/atollic/truestudio for arm pro 3.2.0/armtools/bin/../lib/gcc/arm-atollic-eabi/4.6.2/thumb/softfp/armv7e-m/fpv4-sp-d16/crtbegin.o
 *(.init)
 .init          0x08009bb8        0x4 c:/program files (x86)/atollic/truestudio for arm pro 3.2.0/armtools/bin/../lib/gcc/arm-atollic-eabi/4.6.2/thumb/softfp/armv7e-m/fpv4-sp-d16/crti.o
                0x08009bb8                _init
 .init          0x08009bbc        0x8 c:/program files (x86)/atollic/truestudio for arm pro 3.2.0/armtools/bin/../lib/gcc/arm-atollic-eabi/4.6.2/thumb/softfp/armv7e-m/fpv4-sp-d16/crtn.o
 *(.fini)
 .fini          0x08009bc4        0x4 c:/program files (x86)/atollic/truestudio for arm pro 3.2.0/armtools/bin/../lib/gcc/arm-atollic-eabi/4.6.2/thumb/softfp/armv7e-m/fpv4-sp-d16/crti.o
                0x08009bc4                _fini
 .fini          0x08009bc8        0x8 c:/program files (x86)/atollic/truestudio for arm pro 3.2.0/armtools/bin/../lib/gcc/arm-atollic-eabi/4.6.2/thumb/softfp/armv7e-m/fpv4-sp-d16/crtn.o
                0x08009bd0                . = ALIGN (0x4)
                0x08009bd0                _etext = .

.vfp11_veneer   0x08009bd0        0x0
 .vfp11_veneer  0x00000000        0x0 linker stubs

.v4_bx          0x08009bd0        0x0
 .v4_bx         0x00000000        0x0 linker stubs

.ARM.extab      0x08009bd0       0x30
 *(.ARM.extab* .gnu.linkonce.armextab.*)
 .ARM.extab     0x08009bd0       0x18 c:/program files (x86)/atollic/truestudio for arm pro 3.2.0/armtools/bin/../lib/gcc/arm-atollic-eabi/4.6.2/thumb/softfp/armv7e-m/fpv4-sp-d16\libgcc.a(unwind-arm.o)
 .ARM.extab     0x08009be8       0x18 c:/program files (x86)/atollic/truestudio for arm pro 3.2.0/armtools/bin/../lib/gcc/arm-atollic-eabi/4.6.2/thumb/softfp/armv7e-m/fpv4-sp-d16\libgcc.a(pr-support.o)

.ARM            0x08009c00       0xe0
                0x08009c00                __exidx_start = .
 *(.ARM.exidx*)
 .ARM.exidx     0x08009c00        0x8 c:/program files (x86)/atollic/truestudio for arm pro 3.2.0/armtools/bin/../lib/gcc/arm-atollic-eabi/4.6.2/thumb/softfp/armv7e-m/fpv4-sp-d16\libgcc.a(bpabi.o)
                                 0x10 (size before relaxing)
 .ARM.exidx     0x08009c08       0x88 c:/program files (x86)/atollic/truestudio for arm pro 3.2.0/armtools/bin/../lib/gcc/arm-atollic-eabi/4.6.2/thumb/softfp/armv7e-m/fpv4-sp-d16\libgcc.a(unwind-arm.o)
                                 0xc0 (size before relaxing)
 .ARM.exidx     0x08009c90       0x38 c:/program files (x86)/atollic/truestudio for arm pro 3.2.0/armtools/bin/../lib/gcc/arm-atollic-eabi/4.6.2/thumb/softfp/armv7e-m/fpv4-sp-d16\libgcc.a(pr-support.o)
                                 0x48 (size before relaxing)
 .ARM.exidx     0x08009cc8        0x8 c:/program files (x86)/atollic/truestudio for arm pro 3.2.0/armtools/bin/../lib/gcc/arm-atollic-eabi/4.6.2/thumb/softfp/armv7e-m/fpv4-sp-d16\libgcc.a(_divdi3.o)
 .ARM.exidx     0x08009cd0       0x10 c:/program files (x86)/atollic/truestudio for arm pro 3.2.0/armtools/bin/../lib/gcc/arm-atollic-eabi/4.6.2/thumb/softfp/armv7e-m/fpv4-sp-d16\libgcc.a(_udivdi3.o)
                                  0x8 (size before relaxing)
                0x08009ce0                __exidx_end = .

.preinit_array  0x08009ce0        0x0
                0x08009ce0                PROVIDE (__preinit_array_start, .)
 *(.preinit_array*)
                0x08009ce0                PROVIDE (__preinit_array_end, .)

.init_array     0x08009ce0        0x4
                0x08009ce0                PROVIDE (__init_array_start, .)
 *(SORT(.init_array.*))
 *(.init_array*)
 .init_array    0x08009ce0        0x4 c:/program files (x86)/atollic/truestudio for arm pro 3.2.0/armtools/bin/../lib/gcc/arm-atollic-eabi/4.6.2/thumb/softfp/armv7e-m/fpv4-sp-d16/crtbegin.o
                0x08009ce4                PROVIDE (__init_array_end, .)

.fini_array     0x08009ce4        0x4
                0x08009ce4                PROVIDE (__fini_array_start, .)
 *(SORT(.fini_array.*))
 *(.fini_array*)
 .fini_array    0x08009ce4        0x4 c:/program files (x86)/atollic/truestudio for arm pro 3.2.0/armtools/bin/../lib/gcc/arm-atollic-eabi/4.6.2/thumb/softfp/armv7e-m/fpv4-sp-d16/crtbegin.o
                0x08009ce8                PROVIDE (__fini_array_end, .)
                0x08009ce8                _sidata = LOADADDR (.data)

.data           0x20000000      0x55c load address 0x08009ce8
                0x20000000                . = ALIGN (0x4)
                0x20000000                _sdata = .
 *(.data)
 *(.data*)
 .data.GPIO_PORT
                0x20000000       0x10 BSP\bsp.o
                0x20000000                GPIO_PORT
 .data.APBAHBPrescTable
                0x20000010       0x10 BSP\STM32F2xx\src\stm32f2xx_rcc.o
 .data.impure_data
                0x20000020       0xf0 c:/program files (x86)/atollic/truestudio for arm pro 3.2.0/armtools/bin/../lib/gcc/arm-atollic-eabi/4.6.2/../../../../arm-atollic-eabi/lib/thumb/softfp/armv7e-m/fpv4-sp-d16\libc.a(lib_a-impure.o)
 .data._impure_ptr
                0x20000110        0x4 c:/program files (x86)/atollic/truestudio for arm pro 3.2.0/armtools/bin/../lib/gcc/arm-atollic-eabi/4.6.2/../../../../arm-atollic-eabi/lib/thumb/softfp/armv7e-m/fpv4-sp-d16\libc.a(lib_a-impure.o)
                0x20000110                _impure_ptr
 .data.lconv    0x20000114       0x38 c:/program files (x86)/atollic/truestudio for arm pro 3.2.0/armtools/bin/../lib/gcc/arm-atollic-eabi/4.6.2/../../../../arm-atollic-eabi/lib/thumb/softfp/armv7e-m/fpv4-sp-d16\libc.a(lib_a-locale.o)
 .data.__malloc_av_
                0x2000014c      0x408 c:/program files (x86)/atollic/truestudio for arm pro 3.2.0/armtools/bin/../lib/gcc/arm-atollic-eabi/4.6.2/../../../../arm-atollic-eabi/lib/thumb/softfp/armv7e-m/fpv4-sp-d16\libc.a(lib_a-mallocr.o)
                0x2000014c                __malloc_av_
 .data.__malloc_trim_threshold
                0x20000554        0x4 c:/program files (x86)/atollic/truestudio for arm pro 3.2.0/armtools/bin/../lib/gcc/arm-atollic-eabi/4.6.2/../../../../arm-atollic-eabi/lib/thumb/softfp/armv7e-m/fpv4-sp-d16\libc.a(lib_a-mallocr.o)
                0x20000554                __malloc_trim_threshold
 .data.__malloc_sbrk_base
                0x20000558        0x4 c:/program files (x86)/atollic/truestudio for arm pro 3.2.0/armtools/bin/../lib/gcc/arm-atollic-eabi/4.6.2/../../../../arm-atollic-eabi/lib/thumb/softfp/armv7e-m/fpv4-sp-d16\libc.a(lib_a-mallocr.o)
                0x20000558                __malloc_sbrk_base
                0x2000055c                . = ALIGN (0x4)
                0x2000055c                _edata = .
                0x0800a244                _siccmram = LOADADDR (.ccmram)

.jcr            0x2000055c        0x0 load address 0x0800a244
 .jcr           0x2000055c        0x0 c:/program files (x86)/atollic/truestudio for arm pro 3.2.0/armtools/bin/../lib/gcc/arm-atollic-eabi/4.6.2/thumb/softfp/armv7e-m/fpv4-sp-d16/crtbegin.o

.ccmram         0x10000000        0x0 load address 0x0800a244
                0x10000000                . = ALIGN (0x4)
                0x10000000                _sccmram = .
 *(.ccmram)
 *(.ccmram*)
                0x10000000                . = ALIGN (0x4)
                0x10000000                _eccmram = .
                0x10000000                . = ALIGN (0x4)

.bss            0x2000055c     0x4480
                0x2000055c                _sbss = .
                0x2000055c                __bss_start__ = _sbss
 *(.bss)
 .bss           0x2000055c       0x1c c:/program files (x86)/atollic/truestudio for arm pro 3.2.0/armtools/bin/../lib/gcc/arm-atollic-eabi/4.6.2/thumb/softfp/armv7e-m/fpv4-sp-d16/crtbegin.o
 *(.bss*)
 .bss.OSTmrCtr  0x20000578        0x2 uCOS-II\Ports\ARM-Cortex-M3\Generic\GNU\os_cpu_c.o
 *fill*         0x2000057a        0x2 00
 .bss.BSP_SerTxWait
                0x2000057c        0x4 BSP\bsp_ser.o
 .bss.BSP_SerRxWait
                0x20000580        0x4 BSP\bsp_ser.o
 .bss.BSP_SerLock
                0x20000584        0x4 BSP\bsp_ser.o
 .bss.BSP_SerRxData
                0x20000588        0x1 BSP\bsp_ser.o
 *fill*         0x20000589        0x3 00
 .bss.BSP_IntVectTbl
                0x2000058c      0x144 BSP\bsp_int.o
 .bss.AppTaskStartStk
                0x200006d0      0x200 APP\app.o
 .bss.__malloc_max_total_mem
                0x200008d0        0x4 c:/program files (x86)/atollic/truestudio for arm pro 3.2.0/armtools/bin/../lib/gcc/arm-atollic-eabi/4.6.2/../../../../arm-atollic-eabi/lib/thumb/softfp/armv7e-m/fpv4-sp-d16\libc.a(lib_a-mallocr.o)
                0x200008d0                __malloc_max_total_mem
 .bss.__malloc_max_sbrked_mem
                0x200008d4        0x4 c:/program files (x86)/atollic/truestudio for arm pro 3.2.0/armtools/bin/../lib/gcc/arm-atollic-eabi/4.6.2/../../../../arm-atollic-eabi/lib/thumb/softfp/armv7e-m/fpv4-sp-d16\libc.a(lib_a-mallocr.o)
                0x200008d4                __malloc_max_sbrked_mem
 .bss.__malloc_top_pad
                0x200008d8        0x4 c:/program files (x86)/atollic/truestudio for arm pro 3.2.0/armtools/bin/../lib/gcc/arm-atollic-eabi/4.6.2/../../../../arm-atollic-eabi/lib/thumb/softfp/armv7e-m/fpv4-sp-d16\libc.a(lib_a-mallocr.o)
                0x200008d8                __malloc_top_pad
 .bss.__malloc_current_mallinfo
                0x200008dc       0x28 c:/program files (x86)/atollic/truestudio for arm pro 3.2.0/armtools/bin/../lib/gcc/arm-atollic-eabi/4.6.2/../../../../arm-atollic-eabi/lib/thumb/softfp/armv7e-m/fpv4-sp-d16\libc.a(lib_a-mallocr.o)
                0x200008dc                __malloc_current_mallinfo
 .bss.heap_end.4982
                0x20000904        0x4 c:/program files (x86)/atollic/truestudio for arm pro 3.2.0/armtools/bin/../lib/gcc/arm-atollic-eabi/4.6.2/../../../../arm-atollic-eabi/lib/thumb/softfp/armv7e-m/fpv4-sp-d16\libc.a(lib_a-syscalls.o)
 *(COMMON)
 COMMON         0x20000908     0x1a6c uCOS-II\Source\os_core.o
                0x20000908                OSTmrFreeList
                0x2000090c                OSTmrWheelTbl
                0x2000094c                OSLockNesting
                0x20000950                OSTmrSemSignal
                0x20000954                OSTaskRegNextAvailID
                0x20000955                OSRunning
                0x20000958                OSIdleCtr
                0x2000095c                OSTmrUsed
                0x2000095e                OSPrioHighRdy
                0x20000960                OSFlagTbl
                0x200009b0                OSTmrTbl
                0x20000c30                OSPrioCur
                0x20000c34                OSTCBList
                0x20000c38                OSTickStepState
                0x20000c3c                OSMemTbl
                0x20000cb4                OSTaskStatStk
                0x20000eb4                OSCtxSwCtr
                0x20000eb8                OSTmrFree
                0x20000ebc                OSIdleCtrMax
                0x20000ec0                OSTCBFreeList
                0x20000ec4                OSCPUUsage
                0x20000ec5                OSTaskCtr
                0x20000ec8                OSMemFreeList
                0x20000ecc                OSQTbl
                0x20000f2c                OSTCBHighRdy
                0x20000f30                OSQFreeList
                0x20000f34                OSRdyGrp
                0x20000f38                OSRdyTbl
                0x20000f40                OSTmrTaskStk
                0x20001140                OSEventFreeList
                0x20001144                OSIntNesting
                0x20001148                OSTCBCur
                0x2000114c                OSTmrTime
                0x20001150                OSTime
                0x20001154                OSTmrSem
                0x20001158                OSTaskIdleStk
                0x20001358                OSEventTbl
                0x20001ad8                OSTCBTbl
                0x20002268                OSFlagFreeList
                0x2000226c                OSStatRdy
                0x20002270                OSTCBPrioTbl
                0x20002370                OSIdleCtrRun
 COMMON         0x20002374      0x204 uCOS-II\Ports\ARM-Cortex-M3\Generic\GNU\os_cpu_c.o
                0x20002374                OS_CPU_ExceptStkBase
                0x20002378                OS_CPU_ExceptStk
 COMMON         0x20002578     0x244c uC-LIB\lib_mem.o
                0x20002578                Mem_PoolHeap
                0x200025c0                Mem_Heap
                0x200049c0                Mem_PoolTbl
 COMMON         0x200049c4       0x14 uC-CPU\cpu_core.o
                0x200049c4                CPU_TS_TmrFreq_Hz
                0x200049c8                CPU_Name
 COMMON         0x200049d8        0x4 c:/program files (x86)/atollic/truestudio for arm pro 3.2.0/armtools/bin/../lib/gcc/arm-atollic-eabi/4.6.2/../../../../arm-atollic-eabi/lib/thumb/softfp/armv7e-m/fpv4-sp-d16\libc.a(lib_a-reent.o)
                0x200049d8                errno
                0x200049dc                . = ALIGN (0x4)
                0x200049dc                _ebss = .
                0x200049dc                __bss_end__ = _ebss

._user_heap_stack
                0x200049dc      0x400
                0x200049dc                . = ALIGN (0x4)
                0x200049dc                PROVIDE (end, .)
                0x200049dc                PROVIDE (_end, .)
                0x200049dc                . = (. + _Min_Heap_Size)
                0x20004ddc                . = (. + _Min_Stack_Size)
 *fill*         0x200049dc      0x400 00
                0x20004ddc                . = ALIGN (0x4)

.memory_b1_text
 *(.mb1text)
 *(.mb1text*)
 *(.mb1rodata)
 *(.mb1rodata*)

/DISCARD/
 libc.a(*)
 libm.a(*)
 libgcc.a(*)

.ARM.attributes
                0x00000000       0x30
 *(.ARM.attributes)
 .ARM.attributes
                0x00000000       0x24 c:/program files (x86)/atollic/truestudio for arm pro 3.2.0/armtools/bin/../lib/gcc/arm-atollic-eabi/4.6.2/thumb/softfp/armv7e-m/fpv4-sp-d16/crti.o
 .ARM.attributes
                0x00000024       0x34 c:/program files (x86)/atollic/truestudio for arm pro 3.2.0/armtools/bin/../lib/gcc/arm-atollic-eabi/4.6.2/thumb/softfp/armv7e-m/fpv4-sp-d16/crtbegin.o
 .ARM.attributes
                0x00000058       0x39 uCOS-II\Source\os_tmr.o
 .ARM.attributes
                0x00000091       0x39 uCOS-II\Source\os_time.o
 .ARM.attributes
                0x000000ca       0x39 uCOS-II\Source\os_task.o
 .ARM.attributes
                0x00000103       0x39 uCOS-II\Source\os_sem.o
 .ARM.attributes
                0x0000013c       0x39 uCOS-II\Source\os_q.o
 .ARM.attributes
                0x00000175       0x39 uCOS-II\Source\os_mutex.o
 .ARM.attributes
                0x000001ae       0x39 uCOS-II\Source\os_mem.o
 .ARM.attributes
                0x000001e7       0x39 uCOS-II\Source\os_mbox.o
 .ARM.attributes
                0x00000220       0x39 uCOS-II\Source\os_flag.o
 .ARM.attributes
                0x00000259       0x39 uCOS-II\Source\os_core.o
 .ARM.attributes
                0x00000292       0x39 uCOS-II\Ports\ARM-Cortex-M3\Generic\GNU\os_dbg.o
 .ARM.attributes
                0x000002cb       0x39 uCOS-II\Ports\ARM-Cortex-M3\Generic\GNU\os_cpu_c.o
 .ARM.attributes
                0x00000304       0x27 uCOS-II\Ports\ARM-Cortex-M3\Generic\GNU\os_cpu_a.o
 .ARM.attributes
                0x0000032b       0x39 uC-LIB\lib_str.o
 .ARM.attributes
                0x00000364       0x39 uC-LIB\lib_mem.o
 .ARM.attributes
                0x0000039d       0x39 uC-LIB\lib_math.o
 .ARM.attributes
                0x000003d6       0x39 uC-LIB\lib_ascii.o
 .ARM.attributes
                0x0000040f       0x39 uC-CPU\cpu_core.o
 .ARM.attributes
                0x00000448       0x39 uC-CPU\ARM-Cortex-M3\GNU\cpu_c.o
 .ARM.attributes
                0x00000481       0x27 uC-CPU\ARM-Cortex-M3\GNU\cpu_a.o
 .ARM.attributes
                0x000004a8       0x21 BSP\cstartup.o
 .ARM.attributes
                0x000004c9       0x39 BSP\bsp_ser.o
 .ARM.attributes
                0x00000502       0x39 BSP\bsp_lcd.o
 .ARM.attributes
                0x0000053b       0x39 BSP\bsp_ioe.o
 .ARM.attributes
                0x00000574       0x39 BSP\bsp_int.o
 .ARM.attributes
                0x000005ad       0x39 BSP\bsp.o
 .ARM.attributes
                0x000005e6       0x39 BSP\STM32F2xx\src\stm32f2xx_wwdg.o
 .ARM.attributes
                0x0000061f       0x39 BSP\STM32F2xx\src\stm32f2xx_usart.o
 .ARM.attributes
                0x00000658       0x39 BSP\STM32F2xx\src\stm32f2xx_tim.o
 .ARM.attributes
                0x00000691       0x39 BSP\STM32F2xx\src\stm32f2xx_syscfg.o
 .ARM.attributes
                0x000006ca       0x39 BSP\STM32F2xx\src\stm32f2xx_spi.o
 .ARM.attributes
                0x00000703       0x39 BSP\STM32F2xx\src\stm32f2xx_sdio.o
 .ARM.attributes
                0x0000073c       0x39 BSP\STM32F2xx\src\stm32f2xx_rtc.o
 .ARM.attributes
                0x00000775       0x39 BSP\STM32F2xx\src\stm32f2xx_rng.o
 .ARM.attributes
                0x000007ae       0x39 BSP\STM32F2xx\src\stm32f2xx_rcc.o
 .ARM.attributes
                0x000007e7       0x39 BSP\STM32F2xx\src\stm32f2xx_pwr.o
 .ARM.attributes
                0x00000820       0x39 BSP\STM32F2xx\src\stm32f2xx_iwdg.o
 .ARM.attributes
                0x00000859       0x39 BSP\STM32F2xx\src\stm32f2xx_i2c.o
 .ARM.attributes
                0x00000892       0x39 BSP\STM32F2xx\src\stm32f2xx_hash_sha1.o
 .ARM.attributes
                0x000008cb       0x39 BSP\STM32F2xx\src\stm32f2xx_hash_md5.o
 .ARM.attributes
                0x00000904       0x39 BSP\STM32F2xx\src\stm32f2xx_hash.o
 .ARM.attributes
                0x0000093d       0x39 BSP\STM32F2xx\src\stm32f2xx_gpio.o
 .ARM.attributes
                0x00000976       0x39 BSP\STM32F2xx\src\stm32f2xx_fsmc.o
 .ARM.attributes
                0x000009af       0x39 BSP\STM32F2xx\src\stm32f2xx_flash.o
 .ARM.attributes
                0x000009e8       0x39 BSP\STM32F2xx\src\stm32f2xx_exti.o
 .ARM.attributes
                0x00000a21       0x39 BSP\STM32F2xx\src\stm32f2xx_dma.o
 .ARM.attributes
                0x00000a5a       0x39 BSP\STM32F2xx\src\stm32f2xx_dcmi.o
 .ARM.attributes
                0x00000a93       0x39 BSP\STM32F2xx\src\stm32f2xx_dbgmcu.o
 .ARM.attributes
                0x00000acc       0x39 BSP\STM32F2xx\src\stm32f2xx_dac.o
 .ARM.attributes
                0x00000b05       0x39 BSP\STM32F2xx\src\stm32f2xx_cryp_tdes.o
 .ARM.attributes
                0x00000b3e       0x39 BSP\STM32F2xx\src\stm32f2xx_cryp_des.o
 .ARM.attributes
                0x00000b77       0x39 BSP\STM32F2xx\src\stm32f2xx_cryp_aes.o
 .ARM.attributes
                0x00000bb0       0x39 BSP\STM32F2xx\src\stm32f2xx_cryp.o
 .ARM.attributes
                0x00000be9       0x39 BSP\STM32F2xx\src\stm32f2xx_crc.o
 .ARM.attributes
                0x00000c22       0x39 BSP\STM32F2xx\src\stm32f2xx_can.o
 .ARM.attributes
                0x00000c5b       0x39 BSP\STM32F2xx\src\stm32f2xx_adc.o
 .ARM.attributes
                0x00000c94       0x39 BSP\STM32F2xx\src\misc.o
 .ARM.attributes
                0x00000ccd       0x39 BSP\OS\bsp_os.o
 .ARM.attributes
                0x00000d06       0x39 BSP\CMSIS\Device_Support\system_stm32f2xx.o
 .ARM.attributes
                0x00000d3f       0x39 APP\app_hooks.o
 .ARM.attributes
                0x00000d78       0x39 APP\app.o
 .ARM.attributes
                0x00000db1       0x34 c:/program files (x86)/atollic/truestudio for arm pro 3.2.0/armtools/bin/../lib/gcc/arm-atollic-eabi/4.6.2/../../../../arm-atollic-eabi/lib/thumb/softfp/armv7e-m/fpv4-sp-d16\libc.a(lib_a-init.o)
 .ARM.attributes
                0x00000de5       0x34 c:/program files (x86)/atollic/truestudio for arm pro 3.2.0/armtools/bin/../lib/gcc/arm-atollic-eabi/4.6.2/../../../../arm-atollic-eabi/lib/thumb/softfp/armv7e-m/fpv4-sp-d16\libc.a(lib_a-vsnprintf.o)
 .ARM.attributes
                0x00000e19       0x34 c:/program files (x86)/atollic/truestudio for arm pro 3.2.0/armtools/bin/../lib/gcc/arm-atollic-eabi/4.6.2/../../../../arm-atollic-eabi/lib/thumb/softfp/armv7e-m/fpv4-sp-d16\libc.a(lib_a-impure.o)
 .ARM.attributes
                0x00000e4d       0x34 c:/program files (x86)/atollic/truestudio for arm pro 3.2.0/armtools/bin/../lib/gcc/arm-atollic-eabi/4.6.2/../../../../arm-atollic-eabi/lib/thumb/softfp/armv7e-m/fpv4-sp-d16\libc.a(lib_a-svfprintf.o)
 .ARM.attributes
                0x00000e81       0x34 c:/program files (x86)/atollic/truestudio for arm pro 3.2.0/armtools/bin/../lib/gcc/arm-atollic-eabi/4.6.2/../../../../arm-atollic-eabi/lib/thumb/softfp/armv7e-m/fpv4-sp-d16\libc.a(lib_a-dtoa.o)
 .ARM.attributes
                0x00000eb5       0x34 c:/program files (x86)/atollic/truestudio for arm pro 3.2.0/armtools/bin/../lib/gcc/arm-atollic-eabi/4.6.2/../../../../arm-atollic-eabi/lib/thumb/softfp/armv7e-m/fpv4-sp-d16\libc.a(lib_a-locale.o)
 .ARM.attributes
                0x00000ee9       0x34 c:/program files (x86)/atollic/truestudio for arm pro 3.2.0/armtools/bin/../lib/gcc/arm-atollic-eabi/4.6.2/../../../../arm-atollic-eabi/lib/thumb/softfp/armv7e-m/fpv4-sp-d16\libc.a(lib_a-malloc.o)
 .ARM.attributes
                0x00000f1d       0x34 c:/program files (x86)/atollic/truestudio for arm pro 3.2.0/armtools/bin/../lib/gcc/arm-atollic-eabi/4.6.2/../../../../arm-atollic-eabi/lib/thumb/softfp/armv7e-m/fpv4-sp-d16\libc.a(lib_a-mallocr.o)
 .ARM.attributes
                0x00000f51       0x34 c:/program files (x86)/atollic/truestudio for arm pro 3.2.0/armtools/bin/../lib/gcc/arm-atollic-eabi/4.6.2/../../../../arm-atollic-eabi/lib/thumb/softfp/armv7e-m/fpv4-sp-d16\libc.a(lib_a-memchr.o)
 .ARM.attributes
                0x00000f85       0x34 c:/program files (x86)/atollic/truestudio for arm pro 3.2.0/armtools/bin/../lib/gcc/arm-atollic-eabi/4.6.2/../../../../arm-atollic-eabi/lib/thumb/softfp/armv7e-m/fpv4-sp-d16\libc.a(lib_a-memcpy.o)
 .ARM.attributes
                0x00000fb9       0x34 c:/program files (x86)/atollic/truestudio for arm pro 3.2.0/armtools/bin/../lib/gcc/arm-atollic-eabi/4.6.2/../../../../arm-atollic-eabi/lib/thumb/softfp/armv7e-m/fpv4-sp-d16\libc.a(lib_a-mlock.o)
 .ARM.attributes
                0x00000fed       0x34 c:/program files (x86)/atollic/truestudio for arm pro 3.2.0/armtools/bin/../lib/gcc/arm-atollic-eabi/4.6.2/../../../../arm-atollic-eabi/lib/thumb/softfp/armv7e-m/fpv4-sp-d16\libc.a(lib_a-mprec.o)
 .ARM.attributes
                0x00001021       0x34 c:/program files (x86)/atollic/truestudio for arm pro 3.2.0/armtools/bin/../lib/gcc/arm-atollic-eabi/4.6.2/../../../../arm-atollic-eabi/lib/thumb/softfp/armv7e-m/fpv4-sp-d16\libc.a(lib_a-s_fpclassify.o)
 .ARM.attributes
                0x00001055       0x34 c:/program files (x86)/atollic/truestudio for arm pro 3.2.0/armtools/bin/../lib/gcc/arm-atollic-eabi/4.6.2/../../../../arm-atollic-eabi/lib/thumb/softfp/armv7e-m/fpv4-sp-d16\libc.a(lib_a-sbrkr.o)
 .ARM.attributes
                0x00001089       0x34 c:/program files (x86)/atollic/truestudio for arm pro 3.2.0/armtools/bin/../lib/gcc/arm-atollic-eabi/4.6.2/../../../../arm-atollic-eabi/lib/thumb/softfp/armv7e-m/fpv4-sp-d16\libc.a(lib_a-strcmp.o)
 .ARM.attributes
                0x000010bd       0x34 c:/program files (x86)/atollic/truestudio for arm pro 3.2.0/armtools/bin/../lib/gcc/arm-atollic-eabi/4.6.2/../../../../arm-atollic-eabi/lib/thumb/softfp/armv7e-m/fpv4-sp-d16\libc.a(lib_a-strlen.o)
 .ARM.attributes
                0x000010f1       0x34 c:/program files (x86)/atollic/truestudio for arm pro 3.2.0/armtools/bin/../lib/gcc/arm-atollic-eabi/4.6.2/../../../../arm-atollic-eabi/lib/thumb/softfp/armv7e-m/fpv4-sp-d16\libc.a(lib_a-svfiprintf.o)
 .ARM.attributes
                0x00001125       0x34 c:/program files (x86)/atollic/truestudio for arm pro 3.2.0/armtools/bin/../lib/gcc/arm-atollic-eabi/4.6.2/../../../../arm-atollic-eabi/lib/thumb/softfp/armv7e-m/fpv4-sp-d16\libc.a(lib_a-syscalls.o)
 .ARM.attributes
                0x00001159       0x34 c:/program files (x86)/atollic/truestudio for arm pro 3.2.0/armtools/bin/../lib/gcc/arm-atollic-eabi/4.6.2/../../../../arm-atollic-eabi/lib/thumb/softfp/armv7e-m/fpv4-sp-d16\libc.a(lib_a-callocr.o)
 .ARM.attributes
                0x0000118d       0x34 c:/program files (x86)/atollic/truestudio for arm pro 3.2.0/armtools/bin/../lib/gcc/arm-atollic-eabi/4.6.2/../../../../arm-atollic-eabi/lib/thumb/softfp/armv7e-m/fpv4-sp-d16\libc.a(lib_a-freer.o)
 .ARM.attributes
                0x000011c1       0x34 c:/program files (x86)/atollic/truestudio for arm pro 3.2.0/armtools/bin/../lib/gcc/arm-atollic-eabi/4.6.2/../../../../arm-atollic-eabi/lib/thumb/softfp/armv7e-m/fpv4-sp-d16\libc.a(lib_a-memmove.o)
 .ARM.attributes
                0x000011f5       0x34 c:/program files (x86)/atollic/truestudio for arm pro 3.2.0/armtools/bin/../lib/gcc/arm-atollic-eabi/4.6.2/../../../../arm-atollic-eabi/lib/thumb/softfp/armv7e-m/fpv4-sp-d16\libc.a(lib_a-memset.o)
 .ARM.attributes
                0x00001229       0x34 c:/program files (x86)/atollic/truestudio for arm pro 3.2.0/armtools/bin/../lib/gcc/arm-atollic-eabi/4.6.2/../../../../arm-atollic-eabi/lib/thumb/softfp/armv7e-m/fpv4-sp-d16\libc.a(lib_a-reallocr.o)
 .ARM.attributes
                0x0000125d       0x34 c:/program files (x86)/atollic/truestudio for arm pro 3.2.0/armtools/bin/../lib/gcc/arm-atollic-eabi/4.6.2/../../../../arm-atollic-eabi/lib/thumb/softfp/armv7e-m/fpv4-sp-d16\libc.a(lib_a-reent.o)
 .ARM.attributes
                0x00001291       0x24 c:/program files (x86)/atollic/truestudio for arm pro 3.2.0/armtools/bin/../lib/gcc/arm-atollic-eabi/4.6.2/thumb/softfp/armv7e-m/fpv4-sp-d16\libgcc.a(_arm_addsubdf3.o)
 .ARM.attributes
                0x000012b5       0x24 c:/program files (x86)/atollic/truestudio for arm pro 3.2.0/armtools/bin/../lib/gcc/arm-atollic-eabi/4.6.2/thumb/softfp/armv7e-m/fpv4-sp-d16\libgcc.a(_arm_muldivdf3.o)
 .ARM.attributes
                0x000012d9       0x24 c:/program files (x86)/atollic/truestudio for arm pro 3.2.0/armtools/bin/../lib/gcc/arm-atollic-eabi/4.6.2/thumb/softfp/armv7e-m/fpv4-sp-d16\libgcc.a(_arm_cmpdf2.o)
 .ARM.attributes
                0x000012fd       0x24 c:/program files (x86)/atollic/truestudio for arm pro 3.2.0/armtools/bin/../lib/gcc/arm-atollic-eabi/4.6.2/thumb/softfp/armv7e-m/fpv4-sp-d16\libgcc.a(_arm_fixdfsi.o)
 .ARM.attributes
                0x00001321       0x24 c:/program files (x86)/atollic/truestudio for arm pro 3.2.0/armtools/bin/../lib/gcc/arm-atollic-eabi/4.6.2/thumb/softfp/armv7e-m/fpv4-sp-d16\libgcc.a(_aeabi_uldivmod.o)
 .ARM.attributes
                0x00001345       0x34 c:/program files (x86)/atollic/truestudio for arm pro 3.2.0/armtools/bin/../lib/gcc/arm-atollic-eabi/4.6.2/thumb/softfp/armv7e-m/fpv4-sp-d16\libgcc.a(bpabi.o)
 .ARM.attributes
                0x00001379       0x34 c:/program files (x86)/atollic/truestudio for arm pro 3.2.0/armtools/bin/../lib/gcc/arm-atollic-eabi/4.6.2/thumb/softfp/armv7e-m/fpv4-sp-d16\libgcc.a(unwind-arm.o)
 .ARM.attributes
                0x000013ad       0x24 c:/program files (x86)/atollic/truestudio for arm pro 3.2.0/armtools/bin/../lib/gcc/arm-atollic-eabi/4.6.2/thumb/softfp/armv7e-m/fpv4-sp-d16\libgcc.a(libunwind.o)
 .ARM.attributes
                0x000013d1       0x34 c:/program files (x86)/atollic/truestudio for arm pro 3.2.0/armtools/bin/../lib/gcc/arm-atollic-eabi/4.6.2/thumb/softfp/armv7e-m/fpv4-sp-d16\libgcc.a(pr-support.o)
 .ARM.attributes
                0x00001405       0x24 c:/program files (x86)/atollic/truestudio for arm pro 3.2.0/armtools/bin/../lib/gcc/arm-atollic-eabi/4.6.2/thumb/softfp/armv7e-m/fpv4-sp-d16\libgcc.a(_dvmd_tls.o)
 .ARM.attributes
                0x00001429       0x34 c:/program files (x86)/atollic/truestudio for arm pro 3.2.0/armtools/bin/../lib/gcc/arm-atollic-eabi/4.6.2/thumb/softfp/armv7e-m/fpv4-sp-d16\libgcc.a(_divdi3.o)
 .ARM.attributes
                0x0000145d       0x34 c:/program files (x86)/atollic/truestudio for arm pro 3.2.0/armtools/bin/../lib/gcc/arm-atollic-eabi/4.6.2/thumb/softfp/armv7e-m/fpv4-sp-d16\libgcc.a(_udivdi3.o)
 .ARM.attributes
                0x00001491       0x34 c:/program files (x86)/atollic/truestudio for arm pro 3.2.0/armtools/bin/../lib/gcc/arm-atollic-eabi/4.6.2/../../../../arm-atollic-eabi/lib/thumb/softfp/armv7e-m/fpv4-sp-d16\libc.a(lib_a-abort.o)
 .ARM.attributes
                0x000014c5       0x34 c:/program files (x86)/atollic/truestudio for arm pro 3.2.0/armtools/bin/../lib/gcc/arm-atollic-eabi/4.6.2/../../../../arm-atollic-eabi/lib/thumb/softfp/armv7e-m/fpv4-sp-d16\libc.a(lib_a-signal.o)
 .ARM.attributes
                0x000014f9       0x34 c:/program files (x86)/atollic/truestudio for arm pro 3.2.0/armtools/bin/../lib/gcc/arm-atollic-eabi/4.6.2/../../../../arm-atollic-eabi/lib/thumb/softfp/armv7e-m/fpv4-sp-d16\libc.a(lib_a-signalr.o)
 .ARM.attributes
                0x0000152d       0x34 c:/program files (x86)/atollic/truestudio for arm pro 3.2.0/armtools/bin/../lib/gcc/arm-atollic-eabi/4.6.2/thumb/softfp/armv7e-m/fpv4-sp-d16/crtend.o
 .ARM.attributes
                0x00001561       0x24 c:/program files (x86)/atollic/truestudio for arm pro 3.2.0/armtools/bin/../lib/gcc/arm-atollic-eabi/4.6.2/thumb/softfp/armv7e-m/fpv4-sp-d16/crtn.o
OUTPUT(uCOS-II.elf elf32-littlearm)

.debug_info     0x00000000    0x1deb5
 .debug_info    0x00000000      0xb04 uCOS-II\Source\os_tmr.o
 .debug_info    0x00000b04      0x60c uCOS-II\Source\os_time.o
 .debug_info    0x00001110      0xc61 uCOS-II\Source\os_task.o
 .debug_info    0x00001d71      0x771 uCOS-II\Source\os_sem.o
 .debug_info    0x000024e2      0xa08 uCOS-II\Source\os_q.o
 .debug_info    0x00002eea      0x859 uCOS-II\Source\os_mutex.o
 .debug_info    0x00003743      0x4a5 uCOS-II\Source\os_mem.o
 .debug_info    0x00003be8      0x797 uCOS-II\Source\os_mbox.o
 .debug_info    0x0000437f      0xafa uCOS-II\Source\os_flag.o
 .debug_info    0x00004e79     0x14da uCOS-II\Source\os_core.o
 .debug_info    0x00006353     0x1230 uCOS-II\Ports\ARM-Cortex-M3\Generic\GNU\os_dbg.o
 .debug_info    0x00007583      0x65d uCOS-II\Ports\ARM-Cortex-M3\Generic\GNU\os_cpu_c.o
 .debug_info    0x00007be0       0xed uCOS-II\Ports\ARM-Cortex-M3\Generic\GNU\os_cpu_a.o
 .debug_info    0x00007ccd      0xda9 uC-LIB\lib_str.o
 .debug_info    0x00008a76      0xfbd uC-LIB\lib_mem.o
 .debug_info    0x00009a33      0x188 uC-LIB\lib_math.o
 .debug_info    0x00009bbb      0x465 uC-LIB\lib_ascii.o
 .debug_info    0x0000a020      0x589 uC-CPU\cpu_core.o
 .debug_info    0x0000a5a9      0x3b5 uC-CPU\ARM-Cortex-M3\GNU\cpu_c.o
 .debug_info    0x0000a95e       0xd9 uC-CPU\ARM-Cortex-M3\GNU\cpu_a.o
 .debug_info    0x0000aa37       0xc5 BSP\cstartup.o
 .debug_info    0x0000aafc      0x7e9 BSP\bsp_ser.o
 .debug_info    0x0000b2e5      0x55d BSP\bsp_lcd.o
 .debug_info    0x0000b842      0xbd9 BSP\bsp_ioe.o
 .debug_info    0x0000c41b      0x9a3 BSP\bsp_int.o
 .debug_info    0x0000cdbe      0x804 BSP\bsp.o
 .debug_info    0x0000d5c2      0x25a BSP\STM32F2xx\src\stm32f2xx_wwdg.o
 .debug_info    0x0000d81c      0xa53 BSP\STM32F2xx\src\stm32f2xx_usart.o
 .debug_info    0x0000e26f     0x1e2c BSP\STM32F2xx\src\stm32f2xx_tim.o
 .debug_info    0x0001009b      0x27e BSP\STM32F2xx\src\stm32f2xx_syscfg.o
 .debug_info    0x00010319      0xb75 BSP\STM32F2xx\src\stm32f2xx_spi.o
 .debug_info    0x00010e8e      0x8a8 BSP\STM32F2xx\src\stm32f2xx_sdio.o
 .debug_info    0x00011736      0xf60 BSP\STM32F2xx\src\stm32f2xx_rtc.o
 .debug_info    0x00012696      0x295 BSP\STM32F2xx\src\stm32f2xx_rng.o
 .debug_info    0x0001292b      0xd28 BSP\STM32F2xx\src\stm32f2xx_rcc.o
 .debug_info    0x00013653      0x4f7 BSP\STM32F2xx\src\stm32f2xx_pwr.o
 .debug_info    0x00013b4a      0x20f BSP\STM32F2xx\src\stm32f2xx_iwdg.o
 .debug_info    0x00013d59      0xb95 BSP\STM32F2xx\src\stm32f2xx_i2c.o
 .debug_info    0x000148ee      0x54e BSP\STM32F2xx\src\stm32f2xx_hash_sha1.o
 .debug_info    0x00014e3c      0x4ed BSP\STM32F2xx\src\stm32f2xx_hash_md5.o
 .debug_info    0x00015329      0x58a BSP\STM32F2xx\src\stm32f2xx_hash.o
 .debug_info    0x000158b3      0x63d BSP\STM32F2xx\src\stm32f2xx_gpio.o
 .debug_info    0x00015ef0      0x9a9 BSP\STM32F2xx\src\stm32f2xx_fsmc.o
 .debug_info    0x00016899      0x778 BSP\STM32F2xx\src\stm32f2xx_flash.o
 .debug_info    0x00017011      0x376 BSP\STM32F2xx\src\stm32f2xx_exti.o
 .debug_info    0x00017387      0x7a7 BSP\STM32F2xx\src\stm32f2xx_dma.o
 .debug_info    0x00017b2e      0x5a1 BSP\STM32F2xx\src\stm32f2xx_dcmi.o
 .debug_info    0x000180cf      0x1f3 BSP\STM32F2xx\src\stm32f2xx_dbgmcu.o
 .debug_info    0x000182c2      0x687 BSP\STM32F2xx\src\stm32f2xx_dac.o
 .debug_info    0x00018949      0x6e3 BSP\STM32F2xx\src\stm32f2xx_cryp_tdes.o
 .debug_info    0x0001902c      0x564 BSP\STM32F2xx\src\stm32f2xx_cryp_des.o
 .debug_info    0x00019590     0x1168 BSP\STM32F2xx\src\stm32f2xx_cryp_aes.o
 .debug_info    0x0001a6f8      0x7a2 BSP\STM32F2xx\src\stm32f2xx_cryp.o
 .debug_info    0x0001ae9a      0x20f BSP\STM32F2xx\src\stm32f2xx_crc.o
 .debug_info    0x0001b0a9      0xc66 BSP\STM32F2xx\src\stm32f2xx_can.o
 .debug_info    0x0001bd0f      0xcf9 BSP\STM32F2xx\src\stm32f2xx_adc.o
 .debug_info    0x0001ca08      0x568 BSP\STM32F2xx\src\misc.o
 .debug_info    0x0001cf70      0x2fa BSP\OS\bsp_os.o
 .debug_info    0x0001d26a      0x5cd BSP\CMSIS\Device_Support\system_stm32f2xx.o
 .debug_info    0x0001d837      0x4f1 APP\app_hooks.o
 .debug_info    0x0001dd28      0x18d APP\app.o

.debug_abbrev   0x00000000     0x4f49
 .debug_abbrev  0x00000000      0x185 uCOS-II\Source\os_tmr.o
 .debug_abbrev  0x00000185      0x119 uCOS-II\Source\os_time.o
 .debug_abbrev  0x0000029e      0x16e uCOS-II\Source\os_task.o
 .debug_abbrev  0x0000040c      0x158 uCOS-II\Source\os_sem.o
 .debug_abbrev  0x00000564      0x158 uCOS-II\Source\os_q.o
 .debug_abbrev  0x000006bc      0x15e uCOS-II\Source\os_mutex.o
 .debug_abbrev  0x0000081a      0x13a uCOS-II\Source\os_mem.o
 .debug_abbrev  0x00000954      0x132 uCOS-II\Source\os_mbox.o
 .debug_abbrev  0x00000a86      0x166 uCOS-II\Source\os_flag.o
 .debug_abbrev  0x00000bec      0x1f4 uCOS-II\Source\os_core.o
 .debug_abbrev  0x00000de0       0xfd uCOS-II\Ports\ARM-Cortex-M3\Generic\GNU\os_dbg.o
 .debug_abbrev  0x00000edd      0x194 uCOS-II\Ports\ARM-Cortex-M3\Generic\GNU\os_cpu_c.o
 .debug_abbrev  0x00001071       0x14 uCOS-II\Ports\ARM-Cortex-M3\Generic\GNU\os_cpu_a.o
 .debug_abbrev  0x00001085      0x10d uC-LIB\lib_str.o
 .debug_abbrev  0x00001192      0x175 uC-LIB\lib_mem.o
 .debug_abbrev  0x00001307      0x102 uC-LIB\lib_math.o
 .debug_abbrev  0x00001409       0xcd uC-LIB\lib_ascii.o
 .debug_abbrev  0x000014d6      0x15a uC-CPU\cpu_core.o
 .debug_abbrev  0x00001630      0x10a uC-CPU\ARM-Cortex-M3\GNU\cpu_c.o
 .debug_abbrev  0x0000173a       0x14 uC-CPU\ARM-Cortex-M3\GNU\cpu_a.o
 .debug_abbrev  0x0000174e       0x12 BSP\cstartup.o
 .debug_abbrev  0x00001760      0x1fc BSP\bsp_ser.o
 .debug_abbrev  0x0000195c      0x153 BSP\bsp_lcd.o
 .debug_abbrev  0x00001aaf      0x1c8 BSP\bsp_ioe.o
 .debug_abbrev  0x00001c77      0x15a BSP\bsp_int.o
 .debug_abbrev  0x00001dd1      0x1c1 BSP\bsp.o
 .debug_abbrev  0x00001f92      0x120 BSP\STM32F2xx\src\stm32f2xx_wwdg.o
 .debug_abbrev  0x000020b2      0x150 BSP\STM32F2xx\src\stm32f2xx_usart.o
 .debug_abbrev  0x00002202      0x165 BSP\STM32F2xx\src\stm32f2xx_tim.o
 .debug_abbrev  0x00002367      0x12c BSP\STM32F2xx\src\stm32f2xx_syscfg.o
 .debug_abbrev  0x00002493      0x171 BSP\STM32F2xx\src\stm32f2xx_spi.o
 .debug_abbrev  0x00002604      0x16f BSP\STM32F2xx\src\stm32f2xx_sdio.o
 .debug_abbrev  0x00002773      0x16d BSP\STM32F2xx\src\stm32f2xx_rtc.o
 .debug_abbrev  0x000028e0      0x139 BSP\STM32F2xx\src\stm32f2xx_rng.o
 .debug_abbrev  0x00002a19      0x1b9 BSP\STM32F2xx\src\stm32f2xx_rcc.o
 .debug_abbrev  0x00002bd2      0x193 BSP\STM32F2xx\src\stm32f2xx_pwr.o
 .debug_abbrev  0x00002d65       0xfc BSP\STM32F2xx\src\stm32f2xx_iwdg.o
 .debug_abbrev  0x00002e61      0x15f BSP\STM32F2xx\src\stm32f2xx_i2c.o
 .debug_abbrev  0x00002fc0      0x191 BSP\STM32F2xx\src\stm32f2xx_hash_sha1.o
 .debug_abbrev  0x00003151      0x191 BSP\STM32F2xx\src\stm32f2xx_hash_md5.o
 .debug_abbrev  0x000032e2      0x1a3 BSP\STM32F2xx\src\stm32f2xx_hash.o
 .debug_abbrev  0x00003485      0x184 BSP\STM32F2xx\src\stm32f2xx_gpio.o
 .debug_abbrev  0x00003609      0x168 BSP\STM32F2xx\src\stm32f2xx_fsmc.o
 .debug_abbrev  0x00003771      0x16a BSP\STM32F2xx\src\stm32f2xx_flash.o
 .debug_abbrev  0x000038db      0x19a BSP\STM32F2xx\src\stm32f2xx_exti.o
 .debug_abbrev  0x00003a75      0x150 BSP\STM32F2xx\src\stm32f2xx_dma.o
 .debug_abbrev  0x00003bc5      0x17c BSP\STM32F2xx\src\stm32f2xx_dcmi.o
 .debug_abbrev  0x00003d41       0xdc BSP\STM32F2xx\src\stm32f2xx_dbgmcu.o
 .debug_abbrev  0x00003e1d      0x174 BSP\STM32F2xx\src\stm32f2xx_dac.o
 .debug_abbrev  0x00003f91      0x15f BSP\STM32F2xx\src\stm32f2xx_cryp_tdes.o
 .debug_abbrev  0x000040f0      0x15f BSP\STM32F2xx\src\stm32f2xx_cryp_des.o
 .debug_abbrev  0x0000424f      0x1d4 BSP\STM32F2xx\src\stm32f2xx_cryp_aes.o
 .debug_abbrev  0x00004423      0x182 BSP\STM32F2xx\src\stm32f2xx_cryp.o
 .debug_abbrev  0x000045a5      0x10c BSP\STM32F2xx\src\stm32f2xx_crc.o
 .debug_abbrev  0x000046b1      0x1ae BSP\STM32F2xx\src\stm32f2xx_can.o
 .debug_abbrev  0x0000485f      0x18b BSP\STM32F2xx\src\stm32f2xx_adc.o
 .debug_abbrev  0x000049ea      0x137 BSP\STM32F2xx\src\misc.o
 .debug_abbrev  0x00004b21      0x119 BSP\OS\bsp_os.o
 .debug_abbrev  0x00004c3a      0x15e BSP\CMSIS\Device_Support\system_stm32f2xx.o
 .debug_abbrev  0x00004d98       0xd9 APP\app_hooks.o
 .debug_abbrev  0x00004e71       0xd8 APP\app.o

.debug_loc      0x00000000     0xcb20
 .debug_loc     0x00000000      0x348 uCOS-II\Source\os_tmr.o
 .debug_loc     0x00000348      0x118 uCOS-II\Source\os_time.o
 .debug_loc     0x00000460      0x374 uCOS-II\Source\os_task.o
 .debug_loc     0x000007d4      0x1c0 uCOS-II\Source\os_sem.o
 .debug_loc     0x00000994      0x268 uCOS-II\Source\os_q.o
 .debug_loc     0x00000bfc      0x188 uCOS-II\Source\os_mutex.o
 .debug_loc     0x00000d84      0x188 uCOS-II\Source\os_mem.o
 .debug_loc     0x00000f0c      0x1c0 uCOS-II\Source\os_mbox.o
 .debug_loc     0x000010cc      0x2da uCOS-II\Source\os_flag.o
 .debug_loc     0x000013a6      0x728 uCOS-II\Source\os_core.o
 .debug_loc     0x00001ace       0x38 uCOS-II\Ports\ARM-Cortex-M3\Generic\GNU\os_dbg.o
 .debug_loc     0x00001b06      0x29c uCOS-II\Ports\ARM-Cortex-M3\Generic\GNU\os_cpu_c.o
 .debug_loc     0x00001da2      0x544 uC-LIB\lib_str.o
 .debug_loc     0x000022e6      0x432 uC-LIB\lib_mem.o
 .debug_loc     0x00002718       0xd4 uC-LIB\lib_math.o
 .debug_loc     0x000027ec      0x380 uC-LIB\lib_ascii.o
 .debug_loc     0x00002b6c      0x3ee uC-CPU\cpu_core.o
 .debug_loc     0x00002f5a      0x188 uC-CPU\ARM-Cortex-M3\GNU\cpu_c.o
 .debug_loc     0x000030e2      0x206 BSP\bsp_ser.o
 .debug_loc     0x000032e8      0x11a BSP\bsp_lcd.o
 .debug_loc     0x00003402      0x41e BSP\bsp_ioe.o
 .debug_loc     0x00003820      0xfcc BSP\bsp_int.o
 .debug_loc     0x000047ec      0x28a BSP\bsp.o
 .debug_loc     0x00004a76      0x19c BSP\STM32F2xx\src\stm32f2xx_wwdg.o
 .debug_loc     0x00004c12      0x658 BSP\STM32F2xx\src\stm32f2xx_usart.o
 .debug_loc     0x0000526a     0x1420 BSP\STM32F2xx\src\stm32f2xx_tim.o
 .debug_loc     0x0000668a      0x144 BSP\STM32F2xx\src\stm32f2xx_syscfg.o
 .debug_loc     0x000067ce      0x540 BSP\STM32F2xx\src\stm32f2xx_spi.o
 .debug_loc     0x00006d0e      0x648 BSP\STM32F2xx\src\stm32f2xx_sdio.o
 .debug_loc     0x00007356      0x97c BSP\STM32F2xx\src\stm32f2xx_rtc.o
 .debug_loc     0x00007cd2      0x1a8 BSP\STM32F2xx\src\stm32f2xx_rng.o
 .debug_loc     0x00007e7a      0x97c BSP\STM32F2xx\src\stm32f2xx_rcc.o
 .debug_loc     0x000087f6      0x250 BSP\STM32F2xx\src\stm32f2xx_pwr.o
 .debug_loc     0x00008a46      0x138 BSP\STM32F2xx\src\stm32f2xx_iwdg.o
 .debug_loc     0x00008b7e      0x738 BSP\STM32F2xx\src\stm32f2xx_i2c.o
 .debug_loc     0x000092b6       0x74 BSP\STM32F2xx\src\stm32f2xx_hash_sha1.o
 .debug_loc     0x0000932a       0x74 BSP\STM32F2xx\src\stm32f2xx_hash_md5.o
 .debug_loc     0x0000939e      0x388 BSP\STM32F2xx\src\stm32f2xx_hash.o
 .debug_loc     0x00009726      0x310 BSP\STM32F2xx\src\stm32f2xx_gpio.o
 .debug_loc     0x00009a36      0x41c BSP\STM32F2xx\src\stm32f2xx_fsmc.o
 .debug_loc     0x00009e52      0x624 BSP\STM32F2xx\src\stm32f2xx_flash.o
 .debug_loc     0x0000a476      0x1b4 BSP\STM32F2xx\src\stm32f2xx_exti.o
 .debug_loc     0x0000a62a      0x428 BSP\STM32F2xx\src\stm32f2xx_dma.o
 .debug_loc     0x0000aa52      0x330 BSP\STM32F2xx\src\stm32f2xx_dcmi.o
 .debug_loc     0x0000ad82      0x100 BSP\STM32F2xx\src\stm32f2xx_dbgmcu.o
 .debug_loc     0x0000ae82      0x3ac BSP\STM32F2xx\src\stm32f2xx_dac.o
 .debug_loc     0x0000b22e       0x74 BSP\STM32F2xx\src\stm32f2xx_cryp_tdes.o
 .debug_loc     0x0000b2a2       0x74 BSP\STM32F2xx\src\stm32f2xx_cryp_des.o
 .debug_loc     0x0000b316       0xae BSP\STM32F2xx\src\stm32f2xx_cryp_aes.o
 .debug_loc     0x0000b3c4      0x394 BSP\STM32F2xx\src\stm32f2xx_cryp.o
 .debug_loc     0x0000b758      0x12c BSP\STM32F2xx\src\stm32f2xx_crc.o
 .debug_loc     0x0000b884      0x578 BSP\STM32F2xx\src\stm32f2xx_can.o
 .debug_loc     0x0000bdfc      0x838 BSP\STM32F2xx\src\stm32f2xx_adc.o
 .debug_loc     0x0000c634      0x118 BSP\STM32F2xx\src\misc.o
 .debug_loc     0x0000c74c       0xe0 BSP\OS\bsp_os.o
 .debug_loc     0x0000c82c       0x9c BSP\CMSIS\Device_Support\system_stm32f2xx.o
 .debug_loc     0x0000c8c8      0x190 APP\app_hooks.o
 .debug_loc     0x0000ca58       0xc8 APP\app.o

.debug_aranges  0x00000000     0x2418
 .debug_aranges
                0x00000000       0x90 uCOS-II\Source\os_tmr.o
 .debug_aranges
                0x00000090       0x40 uCOS-II\Source\os_time.o
 .debug_aranges
                0x000000d0       0x98 uCOS-II\Source\os_task.o
 .debug_aranges
                0x00000168       0x58 uCOS-II\Source\os_sem.o
 .debug_aranges
                0x000001c0       0x70 uCOS-II\Source\os_q.o
 .debug_aranges
                0x00000230       0x50 uCOS-II\Source\os_mutex.o
 .debug_aranges
                0x00000280       0x50 uCOS-II\Source\os_mem.o
 .debug_aranges
                0x000002d0       0x58 uCOS-II\Source\os_mbox.o
 .debug_aranges
                0x00000328       0x80 uCOS-II\Source\os_flag.o
 .debug_aranges
                0x000003a8      0x128 uCOS-II\Source\os_core.o
 .debug_aranges
                0x000004d0       0x20 uCOS-II\Ports\ARM-Cortex-M3\Generic\GNU\os_dbg.o
 .debug_aranges
                0x000004f0       0x80 uCOS-II\Ports\ARM-Cortex-M3\Generic\GNU\os_cpu_c.o
 .debug_aranges
                0x00000570       0x20 uCOS-II\Ports\ARM-Cortex-M3\Generic\GNU\os_cpu_a.o
 .debug_aranges
                0x00000590       0xd8 uC-LIB\lib_str.o
 .debug_aranges
                0x00000668       0xb0 uC-LIB\lib_mem.o
 .debug_aranges
                0x00000718       0x38 uC-LIB\lib_math.o
 .debug_aranges
                0x00000750       0x98 uC-LIB\lib_ascii.o
 .debug_aranges
                0x000007e8       0xb0 uC-CPU\cpu_core.o
 .debug_aranges
                0x00000898       0x50 uC-CPU\ARM-Cortex-M3\GNU\cpu_c.o
 .debug_aranges
                0x000008e8       0x20 uC-CPU\ARM-Cortex-M3\GNU\cpu_a.o
 .debug_aranges
                0x00000908       0x58 BSP\cstartup.o
 .debug_aranges
                0x00000960       0x60 BSP\bsp_ser.o
 .debug_aranges
                0x000009c0       0x40 BSP\bsp_lcd.o
 .debug_aranges
                0x00000a00       0xb0 BSP\bsp_ioe.o
 .debug_aranges
                0x00000ab0      0x2e8 BSP\bsp_int.o
 .debug_aranges
                0x00000d98       0x78 BSP\bsp.o
 .debug_aranges
                0x00000e10       0x58 BSP\STM32F2xx\src\stm32f2xx_wwdg.o
 .debug_aranges
                0x00000e68      0x100 BSP\STM32F2xx\src\stm32f2xx_usart.o
 .debug_aranges
                0x00000f68      0x2f8 BSP\STM32F2xx\src\stm32f2xx_tim.o
 .debug_aranges
                0x00001260       0x48 BSP\STM32F2xx\src\stm32f2xx_syscfg.o
 .debug_aranges
                0x000012a8       0xd8 BSP\STM32F2xx\src\stm32f2xx_spi.o
 .debug_aranges
                0x00001380      0x108 BSP\STM32F2xx\src\stm32f2xx_sdio.o
 .debug_aranges
                0x00001488      0x178 BSP\STM32F2xx\src\stm32f2xx_rtc.o
 .debug_aranges
                0x00001600       0x58 BSP\STM32F2xx\src\stm32f2xx_rng.o
 .debug_aranges
                0x00001658      0x178 BSP\STM32F2xx\src\stm32f2xx_rcc.o
 .debug_aranges
                0x000017d0       0x70 BSP\STM32F2xx\src\stm32f2xx_pwr.o
 .debug_aranges
                0x00001840       0x48 BSP\STM32F2xx\src\stm32f2xx_iwdg.o
 .debug_aranges
                0x00001888      0x120 BSP\STM32F2xx\src\stm32f2xx_i2c.o
 .debug_aranges
                0x000019a8       0x28 BSP\STM32F2xx\src\stm32f2xx_hash_sha1.o
 .debug_aranges
                0x000019d0       0x28 BSP\STM32F2xx\src\stm32f2xx_hash_md5.o
 .debug_aranges
                0x000019f8       0xa0 BSP\STM32F2xx\src\stm32f2xx_hash.o
 .debug_aranges
                0x00001a98       0x88 BSP\STM32F2xx\src\stm32f2xx_gpio.o
 .debug_aranges
                0x00001b20       0xb0 BSP\STM32F2xx\src\stm32f2xx_fsmc.o
 .debug_aranges
                0x00001bd0      0x108 BSP\STM32F2xx\src\stm32f2xx_flash.o
 .debug_aranges
                0x00001cd8       0x58 BSP\STM32F2xx\src\stm32f2xx_exti.o
 .debug_aranges
                0x00001d30       0xb0 BSP\STM32F2xx\src\stm32f2xx_dma.o
 .debug_aranges
                0x00001de0       0x90 BSP\STM32F2xx\src\stm32f2xx_dcmi.o
 .debug_aranges
                0x00001e70       0x40 BSP\STM32F2xx\src\stm32f2xx_dbgmcu.o
 .debug_aranges
                0x00001eb0       0xa0 BSP\STM32F2xx\src\stm32f2xx_dac.o
 .debug_aranges
                0x00001f50       0x28 BSP\STM32F2xx\src\stm32f2xx_cryp_tdes.o
 .debug_aranges
                0x00001f78       0x28 BSP\STM32F2xx\src\stm32f2xx_cryp_des.o
 .debug_aranges
                0x00001fa0       0x30 BSP\STM32F2xx\src\stm32f2xx_cryp_aes.o
 .debug_aranges
                0x00001fd0       0xa0 BSP\STM32F2xx\src\stm32f2xx_cryp.o
 .debug_aranges
                0x00002070       0x48 BSP\STM32F2xx\src\stm32f2xx_crc.o
 .debug_aranges
                0x000020b8       0xe0 BSP\STM32F2xx\src\stm32f2xx_can.o
 .debug_aranges
                0x00002198      0x148 BSP\STM32F2xx\src\stm32f2xx_adc.o
 .debug_aranges
                0x000022e0       0x40 BSP\STM32F2xx\src\misc.o
 .debug_aranges
                0x00002320       0x38 BSP\OS\bsp_os.o
 .debug_aranges
                0x00002358       0x30 BSP\CMSIS\Device_Support\system_stm32f2xx.o
 .debug_aranges
                0x00002388       0x58 APP\app_hooks.o
 .debug_aranges
                0x000023e0       0x38 APP\app.o

.debug_ranges   0x00000000     0x2030
 .debug_ranges  0x00000000       0x80 uCOS-II\Source\os_tmr.o
 .debug_ranges  0x00000080       0x30 uCOS-II\Source\os_time.o
 .debug_ranges  0x000000b0       0x88 uCOS-II\Source\os_task.o
 .debug_ranges  0x00000138       0x48 uCOS-II\Source\os_sem.o
 .debug_ranges  0x00000180       0x60 uCOS-II\Source\os_q.o
 .debug_ranges  0x000001e0       0x40 uCOS-II\Source\os_mutex.o
 .debug_ranges  0x00000220       0x40 uCOS-II\Source\os_mem.o
 .debug_ranges  0x00000260       0x48 uCOS-II\Source\os_mbox.o
 .debug_ranges  0x000002a8       0x70 uCOS-II\Source\os_flag.o
 .debug_ranges  0x00000318      0x118 uCOS-II\Source\os_core.o
 .debug_ranges  0x00000430       0x10 uCOS-II\Ports\ARM-Cortex-M3\Generic\GNU\os_dbg.o
 .debug_ranges  0x00000440       0x70 uCOS-II\Ports\ARM-Cortex-M3\Generic\GNU\os_cpu_c.o
 .debug_ranges  0x000004b0       0xc8 uC-LIB\lib_str.o
 .debug_ranges  0x00000578       0xa0 uC-LIB\lib_mem.o
 .debug_ranges  0x00000618       0x28 uC-LIB\lib_math.o
 .debug_ranges  0x00000640       0x88 uC-LIB\lib_ascii.o
 .debug_ranges  0x000006c8       0xa0 uC-CPU\cpu_core.o
 .debug_ranges  0x00000768       0x40 uC-CPU\ARM-Cortex-M3\GNU\cpu_c.o
 .debug_ranges  0x000007a8       0x50 BSP\cstartup.o
 .debug_ranges  0x000007f8       0x50 BSP\bsp_ser.o
 .debug_ranges  0x00000848       0x30 BSP\bsp_lcd.o
 .debug_ranges  0x00000878       0xa0 BSP\bsp_ioe.o
 .debug_ranges  0x00000918      0x2d8 BSP\bsp_int.o
 .debug_ranges  0x00000bf0       0x68 BSP\bsp.o
 .debug_ranges  0x00000c58       0x48 BSP\STM32F2xx\src\stm32f2xx_wwdg.o
 .debug_ranges  0x00000ca0       0xf0 BSP\STM32F2xx\src\stm32f2xx_usart.o
 .debug_ranges  0x00000d90      0x2e8 BSP\STM32F2xx\src\stm32f2xx_tim.o
 .debug_ranges  0x00001078       0x38 BSP\STM32F2xx\src\stm32f2xx_syscfg.o
 .debug_ranges  0x000010b0       0xc8 BSP\STM32F2xx\src\stm32f2xx_spi.o
 .debug_ranges  0x00001178       0xf8 BSP\STM32F2xx\src\stm32f2xx_sdio.o
 .debug_ranges  0x00001270      0x168 BSP\STM32F2xx\src\stm32f2xx_rtc.o
 .debug_ranges  0x000013d8       0x48 BSP\STM32F2xx\src\stm32f2xx_rng.o
 .debug_ranges  0x00001420      0x168 BSP\STM32F2xx\src\stm32f2xx_rcc.o
 .debug_ranges  0x00001588       0x60 BSP\STM32F2xx\src\stm32f2xx_pwr.o
 .debug_ranges  0x000015e8       0x38 BSP\STM32F2xx\src\stm32f2xx_iwdg.o
 .debug_ranges  0x00001620      0x110 BSP\STM32F2xx\src\stm32f2xx_i2c.o
 .debug_ranges  0x00001730       0x18 BSP\STM32F2xx\src\stm32f2xx_hash_sha1.o
 .debug_ranges  0x00001748       0x18 BSP\STM32F2xx\src\stm32f2xx_hash_md5.o
 .debug_ranges  0x00001760       0x90 BSP\STM32F2xx\src\stm32f2xx_hash.o
 .debug_ranges  0x000017f0       0x78 BSP\STM32F2xx\src\stm32f2xx_gpio.o
 .debug_ranges  0x00001868       0xa0 BSP\STM32F2xx\src\stm32f2xx_fsmc.o
 .debug_ranges  0x00001908       0xf8 BSP\STM32F2xx\src\stm32f2xx_flash.o
 .debug_ranges  0x00001a00       0x48 BSP\STM32F2xx\src\stm32f2xx_exti.o
 .debug_ranges  0x00001a48       0xa0 BSP\STM32F2xx\src\stm32f2xx_dma.o
 .debug_ranges  0x00001ae8       0x80 BSP\STM32F2xx\src\stm32f2xx_dcmi.o
 .debug_ranges  0x00001b68       0x30 BSP\STM32F2xx\src\stm32f2xx_dbgmcu.o
 .debug_ranges  0x00001b98       0x90 BSP\STM32F2xx\src\stm32f2xx_dac.o
 .debug_ranges  0x00001c28       0x18 BSP\STM32F2xx\src\stm32f2xx_cryp_tdes.o
 .debug_ranges  0x00001c40       0x18 BSP\STM32F2xx\src\stm32f2xx_cryp_des.o
 .debug_ranges  0x00001c58       0x20 BSP\STM32F2xx\src\stm32f2xx_cryp_aes.o
 .debug_ranges  0x00001c78       0x90 BSP\STM32F2xx\src\stm32f2xx_cryp.o
 .debug_ranges  0x00001d08       0x38 BSP\STM32F2xx\src\stm32f2xx_crc.o
 .debug_ranges  0x00001d40       0xd0 BSP\STM32F2xx\src\stm32f2xx_can.o
 .debug_ranges  0x00001e10      0x138 BSP\STM32F2xx\src\stm32f2xx_adc.o
 .debug_ranges  0x00001f48       0x30 BSP\STM32F2xx\src\misc.o
 .debug_ranges  0x00001f78       0x28 BSP\OS\bsp_os.o
 .debug_ranges  0x00001fa0       0x20 BSP\CMSIS\Device_Support\system_stm32f2xx.o
 .debug_ranges  0x00001fc0       0x48 APP\app_hooks.o
 .debug_ranges  0x00002008       0x28 APP\app.o

.debug_line     0x00000000    0x105d3
 .debug_line    0x00000000      0x402 uCOS-II\Source\os_tmr.o
 .debug_line    0x00000402      0x241 uCOS-II\Source\os_time.o
 .debug_line    0x00000643      0x437 uCOS-II\Source\os_task.o
 .debug_line    0x00000a7a      0x303 uCOS-II\Source\os_sem.o
 .debug_line    0x00000d7d      0x3c2 uCOS-II\Source\os_q.o
 .debug_line    0x0000113f      0x358 uCOS-II\Source\os_mutex.o
 .debug_line    0x00001497      0x2b1 uCOS-II\Source\os_mem.o
 .debug_line    0x00001748      0x318 uCOS-II\Source\os_mbox.o
 .debug_line    0x00001a60      0x43e uCOS-II\Source\os_flag.o
 .debug_line    0x00001e9e      0x6dd uCOS-II\Source\os_core.o
 .debug_line    0x0000257b      0x20b uCOS-II\Ports\ARM-Cortex-M3\Generic\GNU\os_dbg.o
 .debug_line    0x00002786      0x2d3 uCOS-II\Ports\ARM-Cortex-M3\Generic\GNU\os_cpu_c.o
 .debug_line    0x00002a59       0xb6 uCOS-II\Ports\ARM-Cortex-M3\Generic\GNU\os_cpu_a.o
 .debug_line    0x00002b0f      0x5a6 uC-LIB\lib_str.o
 .debug_line    0x000030b5      0x702 uC-LIB\lib_mem.o
 .debug_line    0x000037b7      0x1db uC-LIB\lib_math.o
 .debug_line    0x00003992      0x43c uC-LIB\lib_ascii.o
 .debug_line    0x00003dce      0x36d uC-CPU\cpu_core.o
 .debug_line    0x0000413b      0x290 uC-CPU\ARM-Cortex-M3\GNU\cpu_c.o
 .debug_line    0x000043cb       0x82 uC-CPU\ARM-Cortex-M3\GNU\cpu_a.o
 .debug_line    0x0000444d       0xd8 BSP\cstartup.o
 .debug_line    0x00004525      0x70c BSP\bsp_ser.o
 .debug_line    0x00004c31      0x50c BSP\bsp_lcd.o
 .debug_line    0x0000513d      0x779 BSP\bsp_ioe.o
 .debug_line    0x000058b6      0x836 BSP\bsp_int.o
 .debug_line    0x000060ec      0x5f9 BSP\bsp.o
 .debug_line    0x000066e5      0x2bf BSP\STM32F2xx\src\stm32f2xx_wwdg.o
 .debug_line    0x000069a4      0x57f BSP\STM32F2xx\src\stm32f2xx_usart.o
 .debug_line    0x00006f23      0xb54 BSP\STM32F2xx\src\stm32f2xx_tim.o
 .debug_line    0x00007a77      0x29d BSP\STM32F2xx\src\stm32f2xx_syscfg.o
 .debug_line    0x00007d14      0x501 BSP\STM32F2xx\src\stm32f2xx_spi.o
 .debug_line    0x00008215      0x520 BSP\STM32F2xx\src\stm32f2xx_sdio.o
 .debug_line    0x00008735      0x7b2 BSP\STM32F2xx\src\stm32f2xx_rtc.o
 .debug_line    0x00008ee7      0x2c0 BSP\STM32F2xx\src\stm32f2xx_rng.o
 .debug_line    0x000091a7      0x677 BSP\STM32F2xx\src\stm32f2xx_rcc.o
 .debug_line    0x0000981e      0x326 BSP\STM32F2xx\src\stm32f2xx_pwr.o
 .debug_line    0x00009b44      0x294 BSP\STM32F2xx\src\stm32f2xx_iwdg.o
 .debug_line    0x00009dd8      0x5b7 BSP\STM32F2xx\src\stm32f2xx_i2c.o
 .debug_line    0x0000a38f      0x464 BSP\STM32F2xx\src\stm32f2xx_hash_sha1.o
 .debug_line    0x0000a7f3      0x445 BSP\STM32F2xx\src\stm32f2xx_hash_md5.o
 .debug_line    0x0000ac38      0x44b BSP\STM32F2xx\src\stm32f2xx_hash.o
 .debug_line    0x0000b083      0x41a BSP\STM32F2xx\src\stm32f2xx_gpio.o
 .debug_line    0x0000b49d      0x534 BSP\STM32F2xx\src\stm32f2xx_fsmc.o
 .debug_line    0x0000b9d1      0x567 BSP\STM32F2xx\src\stm32f2xx_flash.o
 .debug_line    0x0000bf38      0x380 BSP\STM32F2xx\src\stm32f2xx_exti.o
 .debug_line    0x0000c2b8      0x4b7 BSP\STM32F2xx\src\stm32f2xx_dma.o
 .debug_line    0x0000c76f      0x41a BSP\STM32F2xx\src\stm32f2xx_dcmi.o
 .debug_line    0x0000cb89      0x284 BSP\STM32F2xx\src\stm32f2xx_dbgmcu.o
 .debug_line    0x0000ce0d      0x43d BSP\STM32F2xx\src\stm32f2xx_dac.o
 .debug_line    0x0000d24a      0x450 BSP\STM32F2xx\src\stm32f2xx_cryp_tdes.o
 .debug_line    0x0000d69a      0x3d7 BSP\STM32F2xx\src\stm32f2xx_cryp_des.o
 .debug_line    0x0000da71      0x79b BSP\STM32F2xx\src\stm32f2xx_cryp_aes.o
 .debug_line    0x0000e20c      0x46f BSP\STM32F2xx\src\stm32f2xx_cryp.o
 .debug_line    0x0000e67b      0x2a1 BSP\STM32F2xx\src\stm32f2xx_crc.o
 .debug_line    0x0000e91c      0x639 BSP\STM32F2xx\src\stm32f2xx_can.o
 .debug_line    0x0000ef55      0x62f BSP\STM32F2xx\src\stm32f2xx_adc.o
 .debug_line    0x0000f584      0x320 BSP\STM32F2xx\src\misc.o
 .debug_line    0x0000f8a4      0x46e BSP\OS\bsp_os.o
 .debug_line    0x0000fd12      0x24e BSP\CMSIS\Device_Support\system_stm32f2xx.o
 .debug_line    0x0000ff60      0x34a APP\app_hooks.o
 .debug_line    0x000102aa      0x329 APP\app.o

.debug_str      0x00000000     0x93e4
 .debug_str     0x00000000      0x5fd uCOS-II\Source\os_tmr.o
                                0x664 (size before relaxing)
 .debug_str     0x000005fd       0xd0 uCOS-II\Source\os_time.o
                                0x4aa (size before relaxing)
 .debug_str     0x000006cd      0x1ff uCOS-II\Source\os_task.o
                                0x654 (size before relaxing)
 .debug_str     0x000008cc       0xee uCOS-II\Source\os_sem.o
                                0x4ff (size before relaxing)
 .debug_str     0x000009ba      0x117 uCOS-II\Source\os_q.o
                                0x57e (size before relaxing)
 .debug_str     0x00000ad1       0xea uCOS-II\Source\os_mutex.o
                                0x55d (size before relaxing)
 .debug_str     0x00000bbb      0x14a uCOS-II\Source\os_mem.o
                                0x2ee (size before relaxing)
 .debug_str     0x00000d05       0xb5 uCOS-II\Source\os_mbox.o
                                0x514 (size before relaxing)
 .debug_str     0x00000dba      0x1b1 uCOS-II\Source\os_flag.o
                                0x5fb (size before relaxing)
 .debug_str     0x00000f6b      0x317 uCOS-II\Source\os_core.o
                                0xa8f (size before relaxing)
 .debug_str     0x00001282      0x30a uCOS-II\Ports\ARM-Cortex-M3\Generic\GNU\os_dbg.o
                                0xa30 (size before relaxing)
 .debug_str     0x0000158c      0x14b uCOS-II\Ports\ARM-Cortex-M3\Generic\GNU\os_cpu_c.o
                                0x545 (size before relaxing)
 .debug_str     0x000016d7      0x4cc uC-LIB\lib_str.o
                                0x646 (size before relaxing)
 .debug_str     0x00001ba3      0x802 uC-LIB\lib_mem.o
                                0x9fb (size before relaxing)
 .debug_str     0x000023a5       0x7f uC-LIB\lib_math.o
                                0x1da (size before relaxing)
 .debug_str     0x00002424      0x14c uC-LIB\lib_ascii.o
                                0x2c6 (size before relaxing)
 .debug_str     0x00002570      0x245 uC-CPU\cpu_core.o
                                0x3d9 (size before relaxing)
 .debug_str     0x000027b5       0xe5 uC-CPU\ARM-Cortex-M3\GNU\cpu_c.o
                                0x26e (size before relaxing)
 .debug_str     0x0000289a      0x45b BSP\bsp_ser.o
                                0x684 (size before relaxing)
 .debug_str     0x00002cf5      0x2c1 BSP\bsp_lcd.o
                                0x602 (size before relaxing)
 .debug_str     0x00002fb6      0x4a8 BSP\bsp_ioe.o
                                0x855 (size before relaxing)
 .debug_str     0x0000345e      0x7aa BSP\bsp_int.o
                                0x94e (size before relaxing)
 .debug_str     0x00003c08      0x1a6 BSP\bsp.o
                                0x710 (size before relaxing)
 .debug_str     0x00003dae       0xcd BSP\STM32F2xx\src\stm32f2xx_wwdg.o
                                0x27c (size before relaxing)
 .debug_str     0x00003e7b      0x355 BSP\STM32F2xx\src\stm32f2xx_usart.o
                                0x689 (size before relaxing)
 .debug_str     0x000041d0      0xb4d BSP\STM32F2xx\src\stm32f2xx_tim.o
                                0xdca (size before relaxing)
 .debug_str     0x00004d1d      0x145 BSP\STM32F2xx\src\stm32f2xx_syscfg.o
                                0x2f9 (size before relaxing)
 .debug_str     0x00004e62      0x421 BSP\STM32F2xx\src\stm32f2xx_spi.o
                                0x667 (size before relaxing)
 .debug_str     0x00005283      0x468 BSP\STM32F2xx\src\stm32f2xx_sdio.o
                                0x645 (size before relaxing)
 .debug_str     0x000056eb      0x6f3 BSP\STM32F2xx\src\stm32f2xx_rtc.o
                                0x922 (size before relaxing)
 .debug_str     0x00005dde       0xb5 BSP\STM32F2xx\src\stm32f2xx_rng.o
                                0x27e (size before relaxing)
 .debug_str     0x00005e93      0x4f5 BSP\STM32F2xx\src\stm32f2xx_rcc.o
                                0x84a (size before relaxing)
 .debug_str     0x00006388      0x185 BSP\STM32F2xx\src\stm32f2xx_pwr.o
                                0x349 (size before relaxing)
 .debug_str     0x0000650d       0xca BSP\STM32F2xx\src\stm32f2xx_iwdg.o
                                0x266 (size before relaxing)
 .debug_str     0x000065d7      0x317 BSP\STM32F2xx\src\stm32f2xx_i2c.o
                                0x65f (size before relaxing)
 .debug_str     0x000068ee      0x12f BSP\STM32F2xx\src\stm32f2xx_hash_sha1.o
                                0x2f1 (size before relaxing)
 .debug_str     0x00006a1d       0x6b BSP\STM32F2xx\src\stm32f2xx_hash_md5.o
                                0x2ec (size before relaxing)
 .debug_str     0x00006a88      0x1f1 BSP\STM32F2xx\src\stm32f2xx_hash.o
                                0x42c (size before relaxing)
 .debug_str     0x00006c79      0x17a BSP\STM32F2xx\src\stm32f2xx_gpio.o
                                0x49d (size before relaxing)
 .debug_str     0x00006df3      0x3a0 BSP\STM32F2xx\src\stm32f2xx_fsmc.o
                                0x78e (size before relaxing)
 .debug_str     0x00007193      0x3ab BSP\STM32F2xx\src\stm32f2xx_flash.o
                                0x581 (size before relaxing)
 .debug_str     0x0000753e      0x1af BSP\STM32F2xx\src\stm32f2xx_exti.o
                                0x368 (size before relaxing)
 .debug_str     0x000076ed      0x243 BSP\STM32F2xx\src\stm32f2xx_dma.o
                                0x546 (size before relaxing)
 .debug_str     0x00007930      0x2f7 BSP\STM32F2xx\src\stm32f2xx_dcmi.o
                                0x4d3 (size before relaxing)
 .debug_str     0x00007c27       0xbe BSP\STM32F2xx\src\stm32f2xx_dbgmcu.o
                                0x24f (size before relaxing)
 .debug_str     0x00007ce5      0x270 BSP\STM32F2xx\src\stm32f2xx_dac.o
                                0x44d (size before relaxing)
 .debug_str     0x00007f55      0x1cd BSP\STM32F2xx\src\stm32f2xx_cryp_tdes.o
                                0x3d2 (size before relaxing)
 .debug_str     0x00008122       0x4a BSP\STM32F2xx\src\stm32f2xx_cryp_des.o
                                0x3cc (size before relaxing)
 .debug_str     0x0000816c       0xa9 BSP\STM32F2xx\src\stm32f2xx_cryp_aes.o
                                0x3e1 (size before relaxing)
 .debug_str     0x00008215      0x259 BSP\STM32F2xx\src\stm32f2xx_cryp.o
                                0x5b7 (size before relaxing)
 .debug_str     0x0000846e       0xb2 BSP\STM32F2xx\src\stm32f2xx_crc.o
                                0x245 (size before relaxing)
 .debug_str     0x00008520      0x4fe BSP\STM32F2xx\src\stm32f2xx_can.o
                                0x738 (size before relaxing)
 .debug_str     0x00008a1e      0x5f8 BSP\STM32F2xx\src\stm32f2xx_adc.o
                                0x7fe (size before relaxing)
 .debug_str     0x00009016      0x1a8 BSP\STM32F2xx\src\misc.o
                                0x3cd (size before relaxing)
 .debug_str     0x000091be       0xaf BSP\OS\bsp_os.o
                                0x2cd (size before relaxing)
 .debug_str     0x0000926d       0x8b BSP\CMSIS\Device_Support\system_stm32f2xx.o
                                0x39f (size before relaxing)
 .debug_str     0x000092f8       0xa6 APP\app_hooks.o
                                0x482 (size before relaxing)
 .debug_str     0x0000939e       0x46 APP\app.o
                                0x1f5 (size before relaxing)

.comment        0x00000000       0x89
 .comment       0x00000000       0x89 uCOS-II\Source\os_tmr.o
                                 0x8a (size before relaxing)
 .comment       0x00000000       0x8a uCOS-II\Source\os_time.o
 .comment       0x00000000       0x8a uCOS-II\Source\os_task.o
 .comment       0x00000000       0x8a uCOS-II\Source\os_sem.o
 .comment       0x00000000       0x8a uCOS-II\Source\os_q.o
 .comment       0x00000000       0x8a uCOS-II\Source\os_mutex.o
 .comment       0x00000000       0x8a uCOS-II\Source\os_mem.o
 .comment       0x00000000       0x8a uCOS-II\Source\os_mbox.o
 .comment       0x00000000       0x8a uCOS-II\Source\os_flag.o
 .comment       0x00000000       0x8a uCOS-II\Source\os_core.o
 .comment       0x00000000       0x8a uCOS-II\Ports\ARM-Cortex-M3\Generic\GNU\os_dbg.o
 .comment       0x00000000       0x8a uCOS-II\Ports\ARM-Cortex-M3\Generic\GNU\os_cpu_c.o
 .comment       0x00000000       0x8a uC-LIB\lib_str.o
 .comment       0x00000000       0x8a uC-LIB\lib_mem.o
 .comment       0x00000000       0x8a uC-LIB\lib_math.o
 .comment       0x00000000       0x8a uC-LIB\lib_ascii.o
 .comment       0x00000000       0x8a uC-CPU\cpu_core.o
 .comment       0x00000000       0x8a uC-CPU\ARM-Cortex-M3\GNU\cpu_c.o
 .comment       0x00000000       0x8a BSP\bsp_ser.o
 .comment       0x00000000       0x8a BSP\bsp_lcd.o
 .comment       0x00000000       0x8a BSP\bsp_ioe.o
 .comment       0x00000000       0x8a BSP\bsp_int.o
 .comment       0x00000000       0x8a BSP\bsp.o
 .comment       0x00000000       0x8a BSP\STM32F2xx\src\stm32f2xx_wwdg.o
 .comment       0x00000000       0x8a BSP\STM32F2xx\src\stm32f2xx_usart.o
 .comment       0x00000000       0x8a BSP\STM32F2xx\src\stm32f2xx_tim.o
 .comment       0x00000000       0x8a BSP\STM32F2xx\src\stm32f2xx_syscfg.o
 .comment       0x00000000       0x8a BSP\STM32F2xx\src\stm32f2xx_spi.o
 .comment       0x00000000       0x8a BSP\STM32F2xx\src\stm32f2xx_sdio.o
 .comment       0x00000000       0x8a BSP\STM32F2xx\src\stm32f2xx_rtc.o
 .comment       0x00000000       0x8a BSP\STM32F2xx\src\stm32f2xx_rng.o
 .comment       0x00000000       0x8a BSP\STM32F2xx\src\stm32f2xx_rcc.o
 .comment       0x00000000       0x8a BSP\STM32F2xx\src\stm32f2xx_pwr.o
 .comment       0x00000000       0x8a BSP\STM32F2xx\src\stm32f2xx_iwdg.o
 .comment       0x00000000       0x8a BSP\STM32F2xx\src\stm32f2xx_i2c.o
 .comment       0x00000000       0x8a BSP\STM32F2xx\src\stm32f2xx_hash_sha1.o
 .comment       0x00000000       0x8a BSP\STM32F2xx\src\stm32f2xx_hash_md5.o
 .comment       0x00000000       0x8a BSP\STM32F2xx\src\stm32f2xx_hash.o
 .comment       0x00000000       0x8a BSP\STM32F2xx\src\stm32f2xx_gpio.o
 .comment       0x00000000       0x8a BSP\STM32F2xx\src\stm32f2xx_fsmc.o
 .comment       0x00000000       0x8a BSP\STM32F2xx\src\stm32f2xx_flash.o
 .comment       0x00000000       0x8a BSP\STM32F2xx\src\stm32f2xx_exti.o
 .comment       0x00000000       0x8a BSP\STM32F2xx\src\stm32f2xx_dma.o
 .comment       0x00000000       0x8a BSP\STM32F2xx\src\stm32f2xx_dcmi.o
 .comment       0x00000000       0x8a BSP\STM32F2xx\src\stm32f2xx_dbgmcu.o
 .comment       0x00000000       0x8a BSP\STM32F2xx\src\stm32f2xx_dac.o
 .comment       0x00000000       0x8a BSP\STM32F2xx\src\stm32f2xx_cryp_tdes.o
 .comment       0x00000000       0x8a BSP\STM32F2xx\src\stm32f2xx_cryp_des.o
 .comment       0x00000000       0x8a BSP\STM32F2xx\src\stm32f2xx_cryp_aes.o
 .comment       0x00000000       0x8a BSP\STM32F2xx\src\stm32f2xx_cryp.o
 .comment       0x00000000       0x8a BSP\STM32F2xx\src\stm32f2xx_crc.o
 .comment       0x00000000       0x8a BSP\STM32F2xx\src\stm32f2xx_can.o
 .comment       0x00000000       0x8a BSP\STM32F2xx\src\stm32f2xx_adc.o
 .comment       0x00000000       0x8a BSP\STM32F2xx\src\misc.o
 .comment       0x00000000       0x8a BSP\OS\bsp_os.o
 .comment       0x00000000       0x8a BSP\CMSIS\Device_Support\system_stm32f2xx.o
 .comment       0x00000000       0x8a APP\app_hooks.o
 .comment       0x00000000       0x8a APP\app.o

.debug_frame    0x00000000     0x7dac
 .debug_frame   0x00000000      0x1e0 uCOS-II\Source\os_tmr.o
 .debug_frame   0x000001e0       0xb0 uCOS-II\Source\os_time.o
 .debug_frame   0x00000290      0x208 uCOS-II\Source\os_task.o
 .debug_frame   0x00000498      0x110 uCOS-II\Source\os_sem.o
 .debug_frame   0x000005a8      0x170 uCOS-II\Source\os_q.o
 .debug_frame   0x00000718       0xec uCOS-II\Source\os_mutex.o
 .debug_frame   0x00000804       0xf0 uCOS-II\Source\os_mem.o
 .debug_frame   0x000008f4      0x110 uCOS-II\Source\os_mbox.o
 .debug_frame   0x00000a04      0x1a8 uCOS-II\Source\os_flag.o
 .debug_frame   0x00000bac      0x400 uCOS-II\Source\os_core.o
 .debug_frame   0x00000fac       0x2c uCOS-II\Ports\ARM-Cortex-M3\Generic\GNU\os_dbg.o
 .debug_frame   0x00000fd8      0x18c uCOS-II\Ports\ARM-Cortex-M3\Generic\GNU\os_cpu_c.o
 .debug_frame   0x00001164      0x2f8 uC-LIB\lib_str.o
 .debug_frame   0x0000145c      0x254 uC-LIB\lib_mem.o
 .debug_frame   0x000016b0       0x88 uC-LIB\lib_math.o
 .debug_frame   0x00001738      0x1d4 uC-LIB\lib_ascii.o
 .debug_frame   0x0000190c      0x258 uC-CPU\cpu_core.o
 .debug_frame   0x00001b64       0xe8 uC-CPU\ARM-Cortex-M3\GNU\cpu_c.o
 .debug_frame   0x00001c4c      0x138 BSP\bsp_ser.o
 .debug_frame   0x00001d84       0xa8 BSP\bsp_lcd.o
 .debug_frame   0x00001e2c      0x26c BSP\bsp_ioe.o
 .debug_frame   0x00002098      0x9fc BSP\bsp_int.o
 .debug_frame   0x00002a94      0x17c BSP\bsp.o
 .debug_frame   0x00002c10       0xe8 BSP\STM32F2xx\src\stm32f2xx_wwdg.o
 .debug_frame   0x00002cf8      0x344 BSP\STM32F2xx\src\stm32f2xx_usart.o
 .debug_frame   0x0000303c      0xa3c BSP\STM32F2xx\src\stm32f2xx_tim.o
 .debug_frame   0x00003a78       0xbc BSP\STM32F2xx\src\stm32f2xx_syscfg.o
 .debug_frame   0x00003b34      0x2b4 BSP\STM32F2xx\src\stm32f2xx_spi.o
 .debug_frame   0x00003de8      0x344 BSP\STM32F2xx\src\stm32f2xx_sdio.o
 .debug_frame   0x0000412c      0x504 BSP\STM32F2xx\src\stm32f2xx_rtc.o
 .debug_frame   0x00004630       0xec BSP\STM32F2xx\src\stm32f2xx_rng.o
 .debug_frame   0x0000471c      0x4d8 BSP\STM32F2xx\src\stm32f2xx_rcc.o
 .debug_frame   0x00004bf4      0x140 BSP\STM32F2xx\src\stm32f2xx_pwr.o
 .debug_frame   0x00004d34       0xb0 BSP\STM32F2xx\src\stm32f2xx_iwdg.o
 .debug_frame   0x00004de4      0x3b4 BSP\STM32F2xx\src\stm32f2xx_i2c.o
 .debug_frame   0x00005198       0x50 BSP\STM32F2xx\src\stm32f2xx_hash_sha1.o
 .debug_frame   0x000051e8       0x50 BSP\STM32F2xx\src\stm32f2xx_hash_md5.o
 .debug_frame   0x00005238      0x1e0 BSP\STM32F2xx\src\stm32f2xx_hash.o
 .debug_frame   0x00005418      0x19c BSP\STM32F2xx\src\stm32f2xx_gpio.o
 .debug_frame   0x000055b4      0x220 BSP\STM32F2xx\src\stm32f2xx_fsmc.o
 .debug_frame   0x000057d4      0x360 BSP\STM32F2xx\src\stm32f2xx_flash.o
 .debug_frame   0x00005b34       0xec BSP\STM32F2xx\src\stm32f2xx_exti.o
 .debug_frame   0x00005c20      0x224 BSP\STM32F2xx\src\stm32f2xx_dma.o
 .debug_frame   0x00005e44      0x1ac BSP\STM32F2xx\src\stm32f2xx_dcmi.o
 .debug_frame   0x00005ff0       0x94 BSP\STM32F2xx\src\stm32f2xx_dbgmcu.o
 .debug_frame   0x00006084      0x1ec BSP\STM32F2xx\src\stm32f2xx_dac.o
 .debug_frame   0x00006270       0x50 BSP\STM32F2xx\src\stm32f2xx_cryp_tdes.o
 .debug_frame   0x000062c0       0x50 BSP\STM32F2xx\src\stm32f2xx_cryp_des.o
 .debug_frame   0x00006310       0x70 BSP\STM32F2xx\src\stm32f2xx_cryp_aes.o
 .debug_frame   0x00006380      0x1e4 BSP\STM32F2xx\src\stm32f2xx_cryp.o
 .debug_frame   0x00006564       0xac BSP\STM32F2xx\src\stm32f2xx_crc.o
 .debug_frame   0x00006610      0x2d4 BSP\STM32F2xx\src\stm32f2xx_can.o
 .debug_frame   0x000068e4      0x434 BSP\STM32F2xx\src\stm32f2xx_adc.o
 .debug_frame   0x00006d18       0x9c BSP\STM32F2xx\src\misc.o
 .debug_frame   0x00006db4       0x90 BSP\OS\bsp_os.o
 .debug_frame   0x00006e44       0x64 BSP\CMSIS\Device_Support\system_stm32f2xx.o
 .debug_frame   0x00006ea8       0xe0 APP\app_hooks.o
 .debug_frame   0x00006f88       0x80 APP\app.o
 .debug_frame   0x00007008       0x2c c:/program files (x86)/atollic/truestudio for arm pro 3.2.0/armtools/bin/../lib/gcc/arm-atollic-eabi/4.6.2/../../../../arm-atollic-eabi/lib/thumb/softfp/armv7e-m/fpv4-sp-d16\libc.a(lib_a-init.o)
 .debug_frame   0x00007034       0x4c c:/program files (x86)/atollic/truestudio for arm pro 3.2.0/armtools/bin/../lib/gcc/arm-atollic-eabi/4.6.2/../../../../arm-atollic-eabi/lib/thumb/softfp/armv7e-m/fpv4-sp-d16\libc.a(lib_a-vsnprintf.o)
 .debug_frame   0x00007080       0x3c c:/program files (x86)/atollic/truestudio for arm pro 3.2.0/armtools/bin/../lib/gcc/arm-atollic-eabi/4.6.2/../../../../arm-atollic-eabi/lib/thumb/softfp/armv7e-m/fpv4-sp-d16\libc.a(lib_a-svfprintf.o)
 .debug_frame   0x000070bc       0x64 c:/program files (x86)/atollic/truestudio for arm pro 3.2.0/armtools/bin/../lib/gcc/arm-atollic-eabi/4.6.2/../../../../arm-atollic-eabi/lib/thumb/softfp/armv7e-m/fpv4-sp-d16\libc.a(lib_a-dtoa.o)
 .debug_frame   0x00007120       0x98 c:/program files (x86)/atollic/truestudio for arm pro 3.2.0/armtools/bin/../lib/gcc/arm-atollic-eabi/4.6.2/../../../../arm-atollic-eabi/lib/thumb/softfp/armv7e-m/fpv4-sp-d16\libc.a(lib_a-locale.o)
 .debug_frame   0x000071b8       0x30 c:/program files (x86)/atollic/truestudio for arm pro 3.2.0/armtools/bin/../lib/gcc/arm-atollic-eabi/4.6.2/../../../../arm-atollic-eabi/lib/thumb/softfp/armv7e-m/fpv4-sp-d16\libc.a(lib_a-malloc.o)
 .debug_frame   0x000071e8       0x34 c:/program files (x86)/atollic/truestudio for arm pro 3.2.0/armtools/bin/../lib/gcc/arm-atollic-eabi/4.6.2/../../../../arm-atollic-eabi/lib/thumb/softfp/armv7e-m/fpv4-sp-d16\libc.a(lib_a-mallocr.o)
 .debug_frame   0x0000721c       0x28 c:/program files (x86)/atollic/truestudio for arm pro 3.2.0/armtools/bin/../lib/gcc/arm-atollic-eabi/4.6.2/../../../../arm-atollic-eabi/lib/thumb/softfp/armv7e-m/fpv4-sp-d16\libc.a(lib_a-memchr.o)
 .debug_frame   0x00007244       0x28 c:/program files (x86)/atollic/truestudio for arm pro 3.2.0/armtools/bin/../lib/gcc/arm-atollic-eabi/4.6.2/../../../../arm-atollic-eabi/lib/thumb/softfp/armv7e-m/fpv4-sp-d16\libc.a(lib_a-memcpy.o)
 .debug_frame   0x0000726c       0x30 c:/program files (x86)/atollic/truestudio for arm pro 3.2.0/armtools/bin/../lib/gcc/arm-atollic-eabi/4.6.2/../../../../arm-atollic-eabi/lib/thumb/softfp/armv7e-m/fpv4-sp-d16\libc.a(lib_a-mlock.o)
 .debug_frame   0x0000729c      0x238 c:/program files (x86)/atollic/truestudio for arm pro 3.2.0/armtools/bin/../lib/gcc/arm-atollic-eabi/4.6.2/../../../../arm-atollic-eabi/lib/thumb/softfp/armv7e-m/fpv4-sp-d16\libc.a(lib_a-mprec.o)
 .debug_frame   0x000074d4       0x20 c:/program files (x86)/atollic/truestudio for arm pro 3.2.0/armtools/bin/../lib/gcc/arm-atollic-eabi/4.6.2/../../../../arm-atollic-eabi/lib/thumb/softfp/armv7e-m/fpv4-sp-d16\libc.a(lib_a-s_fpclassify.o)
 .debug_frame   0x000074f4       0x2c c:/program files (x86)/atollic/truestudio for arm pro 3.2.0/armtools/bin/../lib/gcc/arm-atollic-eabi/4.6.2/../../../../arm-atollic-eabi/lib/thumb/softfp/armv7e-m/fpv4-sp-d16\libc.a(lib_a-sbrkr.o)
 .debug_frame   0x00007520       0x20 c:/program files (x86)/atollic/truestudio for arm pro 3.2.0/armtools/bin/../lib/gcc/arm-atollic-eabi/4.6.2/../../../../arm-atollic-eabi/lib/thumb/softfp/armv7e-m/fpv4-sp-d16\libc.a(lib_a-strcmp.o)
 .debug_frame   0x00007540       0x20 c:/program files (x86)/atollic/truestudio for arm pro 3.2.0/armtools/bin/../lib/gcc/arm-atollic-eabi/4.6.2/../../../../arm-atollic-eabi/lib/thumb/softfp/armv7e-m/fpv4-sp-d16\libc.a(lib_a-strlen.o)
 .debug_frame   0x00007560       0x68 c:/program files (x86)/atollic/truestudio for arm pro 3.2.0/armtools/bin/../lib/gcc/arm-atollic-eabi/4.6.2/../../../../arm-atollic-eabi/lib/thumb/softfp/armv7e-m/fpv4-sp-d16\libc.a(lib_a-svfiprintf.o)
 .debug_frame   0x000075c8      0x14c c:/program files (x86)/atollic/truestudio for arm pro 3.2.0/armtools/bin/../lib/gcc/arm-atollic-eabi/4.6.2/../../../../arm-atollic-eabi/lib/thumb/softfp/armv7e-m/fpv4-sp-d16\libc.a(lib_a-syscalls.o)
 .debug_frame   0x00007714       0x28 c:/program files (x86)/atollic/truestudio for arm pro 3.2.0/armtools/bin/../lib/gcc/arm-atollic-eabi/4.6.2/../../../../arm-atollic-eabi/lib/thumb/softfp/armv7e-m/fpv4-sp-d16\libc.a(lib_a-callocr.o)
 .debug_frame   0x0000773c       0x50 c:/program files (x86)/atollic/truestudio for arm pro 3.2.0/armtools/bin/../lib/gcc/arm-atollic-eabi/4.6.2/../../../../arm-atollic-eabi/lib/thumb/softfp/armv7e-m/fpv4-sp-d16\libc.a(lib_a-freer.o)
 .debug_frame   0x0000778c       0x2c c:/program files (x86)/atollic/truestudio for arm pro 3.2.0/armtools/bin/../lib/gcc/arm-atollic-eabi/4.6.2/../../../../arm-atollic-eabi/lib/thumb/softfp/armv7e-m/fpv4-sp-d16\libc.a(lib_a-memmove.o)
 .debug_frame   0x000077b8       0x20 c:/program files (x86)/atollic/truestudio for arm pro 3.2.0/armtools/bin/../lib/gcc/arm-atollic-eabi/4.6.2/../../../../arm-atollic-eabi/lib/thumb/softfp/armv7e-m/fpv4-sp-d16\libc.a(lib_a-memset.o)
 .debug_frame   0x000077d8       0x38 c:/program files (x86)/atollic/truestudio for arm pro 3.2.0/armtools/bin/../lib/gcc/arm-atollic-eabi/4.6.2/../../../../arm-atollic-eabi/lib/thumb/softfp/armv7e-m/fpv4-sp-d16\libc.a(lib_a-reallocr.o)
 .debug_frame   0x00007810       0x68 c:/program files (x86)/atollic/truestudio for arm pro 3.2.0/armtools/bin/../lib/gcc/arm-atollic-eabi/4.6.2/../../../../arm-atollic-eabi/lib/thumb/softfp/armv7e-m/fpv4-sp-d16\libc.a(lib_a-reent.o)
 .debug_frame   0x00007878       0x50 c:/program files (x86)/atollic/truestudio for arm pro 3.2.0/armtools/bin/../lib/gcc/arm-atollic-eabi/4.6.2/thumb/softfp/armv7e-m/fpv4-sp-d16\libgcc.a(bpabi.o)
 .debug_frame   0x000078c8      0x26c c:/program files (x86)/atollic/truestudio for arm pro 3.2.0/armtools/bin/../lib/gcc/arm-atollic-eabi/4.6.2/thumb/softfp/armv7e-m/fpv4-sp-d16\libgcc.a(unwind-arm.o)
 .debug_frame   0x00007b34       0xec c:/program files (x86)/atollic/truestudio for arm pro 3.2.0/armtools/bin/../lib/gcc/arm-atollic-eabi/4.6.2/thumb/softfp/armv7e-m/fpv4-sp-d16\libgcc.a(pr-support.o)
 .debug_frame   0x00007c20       0x34 c:/program files (x86)/atollic/truestudio for arm pro 3.2.0/armtools/bin/../lib/gcc/arm-atollic-eabi/4.6.2/thumb/softfp/armv7e-m/fpv4-sp-d16\libgcc.a(_divdi3.o)
 .debug_frame   0x00007c54       0x34 c:/program files (x86)/atollic/truestudio for arm pro 3.2.0/armtools/bin/../lib/gcc/arm-atollic-eabi/4.6.2/thumb/softfp/armv7e-m/fpv4-sp-d16\libgcc.a(_udivdi3.o)
 .debug_frame   0x00007c88       0x28 c:/program files (x86)/atollic/truestudio for arm pro 3.2.0/armtools/bin/../lib/gcc/arm-atollic-eabi/4.6.2/../../../../arm-atollic-eabi/lib/thumb/softfp/armv7e-m/fpv4-sp-d16\libc.a(lib_a-abort.o)
 .debug_frame   0x00007cb0       0xc0 c:/program files (x86)/atollic/truestudio for arm pro 3.2.0/armtools/bin/../lib/gcc/arm-atollic-eabi/4.6.2/../../../../arm-atollic-eabi/lib/thumb/softfp/armv7e-m/fpv4-sp-d16\libc.a(lib_a-signal.o)
 .debug_frame   0x00007d70       0x3c c:/program files (x86)/atollic/truestudio for arm pro 3.2.0/armtools/bin/../lib/gcc/arm-atollic-eabi/4.6.2/../../../../arm-atollic-eabi/lib/thumb/softfp/armv7e-m/fpv4-sp-d16\libc.a(lib_a-signalr.o)

Cross Reference Table

Symbol                                            File
ADC_AnalogWatchdogCmd                             BSP\STM32F2xx\src\stm32f2xx_adc.o
ADC_AnalogWatchdogSingleChannelConfig             BSP\STM32F2xx\src\stm32f2xx_adc.o
ADC_AnalogWatchdogThresholdsConfig                BSP\STM32F2xx\src\stm32f2xx_adc.o
ADC_AutoInjectedConvCmd                           BSP\STM32F2xx\src\stm32f2xx_adc.o
ADC_ClearFlag                                     BSP\STM32F2xx\src\stm32f2xx_adc.o
ADC_ClearITPendingBit                             BSP\STM32F2xx\src\stm32f2xx_adc.o
ADC_Cmd                                           BSP\STM32F2xx\src\stm32f2xx_adc.o
ADC_CommonInit                                    BSP\STM32F2xx\src\stm32f2xx_adc.o
ADC_CommonStructInit                              BSP\STM32F2xx\src\stm32f2xx_adc.o
ADC_ContinuousModeCmd                             BSP\STM32F2xx\src\stm32f2xx_adc.o
ADC_DMACmd                                        BSP\STM32F2xx\src\stm32f2xx_adc.o
ADC_DMARequestAfterLastTransferCmd                BSP\STM32F2xx\src\stm32f2xx_adc.o
ADC_DeInit                                        BSP\STM32F2xx\src\stm32f2xx_adc.o
ADC_DiscModeChannelCountConfig                    BSP\STM32F2xx\src\stm32f2xx_adc.o
ADC_DiscModeCmd                                   BSP\STM32F2xx\src\stm32f2xx_adc.o
ADC_EOCOnEachRegularChannelCmd                    BSP\STM32F2xx\src\stm32f2xx_adc.o
ADC_ExternalTrigInjectedConvConfig                BSP\STM32F2xx\src\stm32f2xx_adc.o
ADC_ExternalTrigInjectedConvEdgeConfig            BSP\STM32F2xx\src\stm32f2xx_adc.o
ADC_GetConversionValue                            BSP\STM32F2xx\src\stm32f2xx_adc.o
ADC_GetFlagStatus                                 BSP\STM32F2xx\src\stm32f2xx_adc.o
ADC_GetITStatus                                   BSP\STM32F2xx\src\stm32f2xx_adc.o
ADC_GetInjectedConversionValue                    BSP\STM32F2xx\src\stm32f2xx_adc.o
ADC_GetMultiModeConversionValue                   BSP\STM32F2xx\src\stm32f2xx_adc.o
ADC_GetSoftwareStartConvStatus                    BSP\STM32F2xx\src\stm32f2xx_adc.o
ADC_GetSoftwareStartInjectedConvCmdStatus         BSP\STM32F2xx\src\stm32f2xx_adc.o
ADC_ITConfig                                      BSP\STM32F2xx\src\stm32f2xx_adc.o
ADC_Init                                          BSP\STM32F2xx\src\stm32f2xx_adc.o
ADC_InjectedChannelConfig                         BSP\STM32F2xx\src\stm32f2xx_adc.o
ADC_InjectedDiscModeCmd                           BSP\STM32F2xx\src\stm32f2xx_adc.o
ADC_InjectedSequencerLengthConfig                 BSP\STM32F2xx\src\stm32f2xx_adc.o
ADC_MultiModeDMARequestAfterLastTransferCmd       BSP\STM32F2xx\src\stm32f2xx_adc.o
ADC_RegularChannelConfig                          BSP\STM32F2xx\src\stm32f2xx_adc.o
ADC_SetInjectedOffset                             BSP\STM32F2xx\src\stm32f2xx_adc.o
ADC_SoftwareStartConv                             BSP\STM32F2xx\src\stm32f2xx_adc.o
ADC_SoftwareStartInjectedConv                     BSP\STM32F2xx\src\stm32f2xx_adc.o
ADC_StructInit                                    BSP\STM32F2xx\src\stm32f2xx_adc.o
ADC_TempSensorVrefintCmd                          BSP\STM32F2xx\src\stm32f2xx_adc.o
ADC_VBATCmd                                       BSP\STM32F2xx\src\stm32f2xx_adc.o
AHBPrescTable                                     BSP\CMSIS\Device_Support\system_stm32f2xx.o
ASCII_Cmp                                         uC-LIB\lib_ascii.o
ASCII_IsAlpha                                     uC-LIB\lib_ascii.o
ASCII_IsAlphaNum                                  uC-LIB\lib_ascii.o
                                                  uC-LIB\lib_str.o
ASCII_IsBlank                                     uC-LIB\lib_ascii.o
ASCII_IsCtrl                                      uC-LIB\lib_ascii.o
ASCII_IsDig                                       uC-LIB\lib_ascii.o
                                                  uC-LIB\lib_str.o
ASCII_IsDigHex                                    uC-LIB\lib_ascii.o
                                                  uC-LIB\lib_str.o
ASCII_IsDigOct                                    uC-LIB\lib_ascii.o
ASCII_IsGraph                                     uC-LIB\lib_ascii.o
ASCII_IsLower                                     uC-LIB\lib_ascii.o
                                                  uC-LIB\lib_str.o
ASCII_IsPrint                                     uC-LIB\lib_ascii.o
                                                  BSP\bsp_ser.o
                                                  uC-LIB\lib_str.o
ASCII_IsPunct                                     uC-LIB\lib_ascii.o
ASCII_IsSpace                                     uC-LIB\lib_ascii.o
                                                  uC-LIB\lib_str.o
ASCII_IsUpper                                     uC-LIB\lib_ascii.o
ASCII_ToLower                                     uC-LIB\lib_ascii.o
                                                  uC-LIB\lib_str.o
ASCII_ToUpper                                     uC-LIB\lib_ascii.o
App_TCBInitHook                                   APP\app_hooks.o
                                                  uCOS-II\Ports\ARM-Cortex-M3\Generic\GNU\os_cpu_c.o
App_TaskCreateHook                                APP\app_hooks.o
                                                  uCOS-II\Ports\ARM-Cortex-M3\Generic\GNU\os_cpu_c.o
App_TaskDelHook                                   APP\app_hooks.o
                                                  uCOS-II\Ports\ARM-Cortex-M3\Generic\GNU\os_cpu_c.o
App_TaskIdleHook                                  APP\app_hooks.o
                                                  uCOS-II\Ports\ARM-Cortex-M3\Generic\GNU\os_cpu_c.o
App_TaskReturnHook                                APP\app_hooks.o
                                                  uCOS-II\Ports\ARM-Cortex-M3\Generic\GNU\os_cpu_c.o
App_TaskStatHook                                  APP\app_hooks.o
                                                  uCOS-II\Ports\ARM-Cortex-M3\Generic\GNU\os_cpu_c.o
App_TaskSwHook                                    APP\app_hooks.o
                                                  uCOS-II\Ports\ARM-Cortex-M3\Generic\GNU\os_cpu_c.o
App_TimeTickHook                                  APP\app_hooks.o
                                                  uCOS-II\Ports\ARM-Cortex-M3\Generic\GNU\os_cpu_c.o
BSP_CPU_ClkFreq                                   BSP\bsp.o
BSP_CPU_TickInit                                  BSP\bsp.o
                                                  APP\app.o
BSP_IOE_Init                                      BSP\bsp_ioe.o
BSP_IOE_TS_GetState                               BSP\bsp_ioe.o
BSP_Init                                          BSP\bsp.o
                                                  APP\app.o
BSP_IntClr                                        BSP\bsp_int.o
BSP_IntDis                                        BSP\bsp_int.o
BSP_IntDisAll                                     BSP\bsp_int.o
                                                  APP\app.o
BSP_IntEn                                         BSP\bsp_int.o
                                                  BSP\bsp_ser.o
BSP_IntHandlerADC1_2                              BSP\bsp_int.o
                                                  BSP\cstartup.o
BSP_IntHandlerCAN1_RX0                            BSP\bsp_int.o
                                                  BSP\cstartup.o
BSP_IntHandlerCAN1_RX1                            BSP\bsp_int.o
                                                  BSP\cstartup.o
BSP_IntHandlerCAN1_SCE                            BSP\bsp_int.o
                                                  BSP\cstartup.o
BSP_IntHandlerCAN1_TX                             BSP\bsp_int.o
                                                  BSP\cstartup.o
BSP_IntHandlerCAN2_RX0                            BSP\bsp_int.o
                                                  BSP\cstartup.o
BSP_IntHandlerCAN2_RX1                            BSP\bsp_int.o
                                                  BSP\cstartup.o
BSP_IntHandlerCAN2_SCE                            BSP\bsp_int.o
                                                  BSP\cstartup.o
BSP_IntHandlerCAN2_TX                             BSP\bsp_int.o
                                                  BSP\cstartup.o
BSP_IntHandlerCRYP                                BSP\bsp_int.o
                                                  BSP\cstartup.o
BSP_IntHandlerDCMI                                BSP\bsp_int.o
                                                  BSP\cstartup.o
BSP_IntHandlerDMA1_CH1                            BSP\bsp_int.o
                                                  BSP\cstartup.o
BSP_IntHandlerDMA1_CH2                            BSP\bsp_int.o
                                                  BSP\cstartup.o
BSP_IntHandlerDMA1_CH3                            BSP\bsp_int.o
                                                  BSP\cstartup.o
BSP_IntHandlerDMA1_CH4                            BSP\bsp_int.o
                                                  BSP\cstartup.o
BSP_IntHandlerDMA1_CH5                            BSP\bsp_int.o
                                                  BSP\cstartup.o
BSP_IntHandlerDMA1_CH6                            BSP\bsp_int.o
                                                  BSP\cstartup.o
BSP_IntHandlerDMA1_CH7                            BSP\bsp_int.o
                                                  BSP\cstartup.o
BSP_IntHandlerDMA1_STREAM7                        BSP\bsp_int.o
                                                  BSP\cstartup.o
BSP_IntHandlerDMA2_CH1                            BSP\bsp_int.o
                                                  BSP\cstartup.o
BSP_IntHandlerDMA2_CH2                            BSP\bsp_int.o
                                                  BSP\cstartup.o
BSP_IntHandlerDMA2_CH3                            BSP\bsp_int.o
                                                  BSP\cstartup.o
BSP_IntHandlerDMA2_CH4                            BSP\bsp_int.o
                                                  BSP\cstartup.o
BSP_IntHandlerDMA2_CH5                            BSP\bsp_int.o
                                                  BSP\cstartup.o
BSP_IntHandlerDMA2_CH6                            BSP\bsp_int.o
                                                  BSP\cstartup.o
BSP_IntHandlerDMA2_CH7                            BSP\bsp_int.o
                                                  BSP\cstartup.o
BSP_IntHandlerDMA2_CH8                            BSP\bsp_int.o
                                                  BSP\cstartup.o
BSP_IntHandlerETH                                 BSP\bsp_int.o
                                                  BSP\cstartup.o
BSP_IntHandlerETHWakeup                           BSP\bsp_int.o
                                                  BSP\cstartup.o
BSP_IntHandlerEXTI0                               BSP\bsp_int.o
                                                  BSP\cstartup.o
BSP_IntHandlerEXTI1                               BSP\bsp_int.o
                                                  BSP\cstartup.o
BSP_IntHandlerEXTI15_10                           BSP\bsp_int.o
                                                  BSP\cstartup.o
BSP_IntHandlerEXTI2                               BSP\bsp_int.o
                                                  BSP\cstartup.o
BSP_IntHandlerEXTI3                               BSP\bsp_int.o
                                                  BSP\cstartup.o
BSP_IntHandlerEXTI4                               BSP\bsp_int.o
                                                  BSP\cstartup.o
BSP_IntHandlerEXTI9_5                             BSP\bsp_int.o
                                                  BSP\cstartup.o
BSP_IntHandlerFLASH                               BSP\bsp_int.o
                                                  BSP\cstartup.o
BSP_IntHandlerFSMC                                BSP\bsp_int.o
                                                  BSP\cstartup.o
BSP_IntHandlerHASH_RNG                            BSP\bsp_int.o
                                                  BSP\cstartup.o
BSP_IntHandlerI2C1_ER                             BSP\bsp_int.o
                                                  BSP\cstartup.o
BSP_IntHandlerI2C1_EV                             BSP\bsp_int.o
                                                  BSP\cstartup.o
BSP_IntHandlerI2C2_ER                             BSP\bsp_int.o
                                                  BSP\cstartup.o
BSP_IntHandlerI2C2_EV                             BSP\bsp_int.o
                                                  BSP\cstartup.o
BSP_IntHandlerI2C3_ER                             BSP\bsp_int.o
                                                  BSP\cstartup.o
BSP_IntHandlerI2C3_EV                             BSP\bsp_int.o
                                                  BSP\cstartup.o
BSP_IntHandlerOTG                                 BSP\bsp_int.o
                                                  BSP\cstartup.o
BSP_IntHandlerOTG_HS                              BSP\bsp_int.o
                                                  BSP\cstartup.o
BSP_IntHandlerOTG_HS_EP1_IN                       BSP\bsp_int.o
                                                  BSP\cstartup.o
BSP_IntHandlerOTG_HS_EP1_OUT                      BSP\bsp_int.o
                                                  BSP\cstartup.o
BSP_IntHandlerOTG_HS_WKUP                         BSP\bsp_int.o
                                                  BSP\cstartup.o
BSP_IntHandlerPVD                                 BSP\bsp_int.o
                                                  BSP\cstartup.o
BSP_IntHandlerRCC                                 BSP\bsp_int.o
                                                  BSP\cstartup.o
BSP_IntHandlerRTC                                 BSP\bsp_int.o
                                                  BSP\cstartup.o
BSP_IntHandlerRTCAlarm                            BSP\bsp_int.o
                                                  BSP\cstartup.o
BSP_IntHandlerSDIO                                BSP\bsp_int.o
                                                  BSP\cstartup.o
BSP_IntHandlerSPI1                                BSP\bsp_int.o
                                                  BSP\cstartup.o
BSP_IntHandlerSPI2                                BSP\bsp_int.o
                                                  BSP\cstartup.o
BSP_IntHandlerSPI3                                BSP\bsp_int.o
                                                  BSP\cstartup.o
BSP_IntHandlerTAMPER                              BSP\bsp_int.o
                                                  BSP\cstartup.o
BSP_IntHandlerTIM1_BRK                            BSP\bsp_int.o
                                                  BSP\cstartup.o
BSP_IntHandlerTIM1_CC                             BSP\bsp_int.o
                                                  BSP\cstartup.o
BSP_IntHandlerTIM1_TRG_COM                        BSP\bsp_int.o
                                                  BSP\cstartup.o
BSP_IntHandlerTIM1_UP                             BSP\bsp_int.o
                                                  BSP\cstartup.o
BSP_IntHandlerTIM2                                BSP\bsp_int.o
                                                  BSP\cstartup.o
BSP_IntHandlerTIM3                                BSP\bsp_int.o
                                                  BSP\cstartup.o
BSP_IntHandlerTIM4                                BSP\bsp_int.o
                                                  BSP\cstartup.o
BSP_IntHandlerTIM5                                BSP\bsp_int.o
                                                  BSP\cstartup.o
BSP_IntHandlerTIM6                                BSP\bsp_int.o
                                                  BSP\cstartup.o
BSP_IntHandlerTIM7                                BSP\bsp_int.o
                                                  BSP\cstartup.o
BSP_IntHandlerTIM8_BRK_TIM12                      BSP\bsp_int.o
                                                  BSP\cstartup.o
BSP_IntHandlerTIM8_CC                             BSP\bsp_int.o
                                                  BSP\cstartup.o
BSP_IntHandlerTIM8_TRG_COM_TIM14                  BSP\bsp_int.o
                                                  BSP\cstartup.o
BSP_IntHandlerTIM8_UP_TIM13                       BSP\bsp_int.o
                                                  BSP\cstartup.o
BSP_IntHandlerUSART1                              BSP\bsp_int.o
                                                  BSP\cstartup.o
BSP_IntHandlerUSART2                              BSP\bsp_int.o
                                                  BSP\cstartup.o
BSP_IntHandlerUSART3                              BSP\bsp_int.o
                                                  BSP\cstartup.o
BSP_IntHandlerUSART4                              BSP\bsp_int.o
                                                  BSP\cstartup.o
BSP_IntHandlerUSART5                              BSP\bsp_int.o
                                                  BSP\cstartup.o
BSP_IntHandlerUSART6                              BSP\bsp_int.o
                                                  BSP\cstartup.o
BSP_IntHandlerUSBWakeUp                           BSP\bsp_int.o
                                                  BSP\cstartup.o
BSP_IntHandlerWWDG                                BSP\bsp_int.o
                                                  BSP\cstartup.o
BSP_IntInit                                       BSP\bsp_int.o
BSP_IntPrioSet                                    BSP\bsp_int.o
BSP_IntVectSet                                    BSP\bsp_int.o
                                                  BSP\bsp_ser.o
BSP_LCD_Init                                      BSP\bsp_lcd.o
BSP_LED_Off                                       BSP\bsp.o
                                                  APP\app.o
BSP_LED_On                                        BSP\bsp.o
BSP_LED_Toggle                                    BSP\bsp.o
                                                  APP\app.o
BSP_OS_SemCreate                                  BSP\OS\bsp_os.o
                                                  BSP\bsp_ser.o
BSP_OS_SemPost                                    BSP\OS\bsp_os.o
                                                  BSP\bsp_ser.o
BSP_OS_SemWait                                    BSP\OS\bsp_os.o
                                                  BSP\bsp_ser.o
BSP_OS_TimeDlyMs                                  BSP\OS\bsp_os.o
                                                  BSP\bsp_ioe.o
                                                  BSP\bsp_lcd.o
BSP_PSRAM_Init                                    BSP\bsp.o
BSP_RNG_Read                                      BSP\bsp.o
BSP_SRAM_Init                                     BSP\bsp.o
BSP_Ser_Init                                      BSP\bsp_ser.o
                                                  APP\app.o
BSP_Ser_Printf                                    BSP\bsp_ser.o
                                                  APP\app.o
BSP_Ser_RdByte                                    BSP\bsp_ser.o
BSP_Ser_RdStr                                     BSP\bsp_ser.o
BSP_Ser_WrByte                                    BSP\bsp_ser.o
BSP_Ser_WrStr                                     BSP\bsp_ser.o
CAN_CancelTransmit                                BSP\STM32F2xx\src\stm32f2xx_can.o
CAN_ClearFlag                                     BSP\STM32F2xx\src\stm32f2xx_can.o
CAN_ClearITPendingBit                             BSP\STM32F2xx\src\stm32f2xx_can.o
CAN_DBGFreeze                                     BSP\STM32F2xx\src\stm32f2xx_can.o
CAN_DeInit                                        BSP\STM32F2xx\src\stm32f2xx_can.o
CAN_FIFORelease                                   BSP\STM32F2xx\src\stm32f2xx_can.o
CAN_FilterInit                                    BSP\STM32F2xx\src\stm32f2xx_can.o
CAN_GetFlagStatus                                 BSP\STM32F2xx\src\stm32f2xx_can.o
CAN_GetITStatus                                   BSP\STM32F2xx\src\stm32f2xx_can.o
CAN_GetLSBTransmitErrorCounter                    BSP\STM32F2xx\src\stm32f2xx_can.o
CAN_GetLastErrorCode                              BSP\STM32F2xx\src\stm32f2xx_can.o
CAN_GetReceiveErrorCounter                        BSP\STM32F2xx\src\stm32f2xx_can.o
CAN_ITConfig                                      BSP\STM32F2xx\src\stm32f2xx_can.o
CAN_Init                                          BSP\STM32F2xx\src\stm32f2xx_can.o
CAN_MessagePending                                BSP\STM32F2xx\src\stm32f2xx_can.o
CAN_OperatingModeRequest                          BSP\STM32F2xx\src\stm32f2xx_can.o
CAN_Receive                                       BSP\STM32F2xx\src\stm32f2xx_can.o
CAN_SlaveStartBank                                BSP\STM32F2xx\src\stm32f2xx_can.o
CAN_Sleep                                         BSP\STM32F2xx\src\stm32f2xx_can.o
CAN_StructInit                                    BSP\STM32F2xx\src\stm32f2xx_can.o
CAN_TTComModeCmd                                  BSP\STM32F2xx\src\stm32f2xx_can.o
CAN_Transmit                                      BSP\STM32F2xx\src\stm32f2xx_can.o
CAN_TransmitStatus                                BSP\STM32F2xx\src\stm32f2xx_can.o
CAN_WakeUp                                        BSP\STM32F2xx\src\stm32f2xx_can.o
CPU_BitBandClr                                    uC-CPU\ARM-Cortex-M3\GNU\cpu_c.o
CPU_BitBandSet                                    uC-CPU\ARM-Cortex-M3\GNU\cpu_c.o
CPU_CntLeadZeros                                  uC-CPU\ARM-Cortex-M3\GNU\cpu_a.o
                                                  uC-CPU\cpu_core.o
CPU_CntLeadZeros08                                uC-CPU\cpu_core.o
CPU_CntLeadZeros16                                uC-CPU\cpu_core.o
CPU_CntLeadZeros32                                uC-CPU\cpu_core.o
CPU_CntLeadZeros64                                uC-CPU\cpu_core.o
CPU_CntTrailZeros                                 uC-CPU\ARM-Cortex-M3\GNU\cpu_a.o
                                                  uC-CPU\cpu_core.o
CPU_CntTrailZeros08                               uC-CPU\cpu_core.o
CPU_CntTrailZeros16                               uC-CPU\cpu_core.o
CPU_CntTrailZeros32                               uC-CPU\cpu_core.o
CPU_CntTrailZeros64                               uC-CPU\cpu_core.o
CPU_Init                                          uC-CPU\cpu_core.o
                                                  APP\app.o
CPU_IntDis                                        uC-CPU\ARM-Cortex-M3\GNU\cpu_a.o
                                                  BSP\bsp_int.o
CPU_IntEn                                         uC-CPU\ARM-Cortex-M3\GNU\cpu_a.o
CPU_IntSrcDis                                     uC-CPU\ARM-Cortex-M3\GNU\cpu_c.o
                                                  BSP\bsp_int.o
CPU_IntSrcEn                                      uC-CPU\ARM-Cortex-M3\GNU\cpu_c.o
                                                  BSP\bsp_int.o
CPU_IntSrcPendClr                                 uC-CPU\ARM-Cortex-M3\GNU\cpu_c.o
CPU_IntSrcPrioGet                                 uC-CPU\ARM-Cortex-M3\GNU\cpu_c.o
CPU_IntSrcPrioSet                                 uC-CPU\ARM-Cortex-M3\GNU\cpu_c.o
                                                  BSP\bsp_int.o
CPU_Name                                          uC-CPU\cpu_core.o
CPU_NameClr                                       uC-CPU\cpu_core.o
CPU_NameGet                                       uC-CPU\cpu_core.o
CPU_NameSet                                       uC-CPU\cpu_core.o
CPU_RevBits                                       uC-CPU\ARM-Cortex-M3\GNU\cpu_a.o
                                                  uC-CPU\ARM-Cortex-M3\GNU\cpu_c.o
CPU_SR_Restore                                    uC-CPU\ARM-Cortex-M3\GNU\cpu_a.o
                                                  BSP\bsp_int.o
                                                  uC-CPU\ARM-Cortex-M3\GNU\cpu_c.o
                                                  uC-CPU\cpu_core.o
                                                  uC-LIB\lib_math.o
                                                  uC-LIB\lib_mem.o
CPU_SR_Save                                       uC-CPU\ARM-Cortex-M3\GNU\cpu_a.o
                                                  BSP\bsp_int.o
                                                  uC-CPU\ARM-Cortex-M3\GNU\cpu_c.o
                                                  uC-CPU\cpu_core.o
                                                  uC-LIB\lib_math.o
                                                  uC-LIB\lib_mem.o
CPU_SW_Exception                                  uC-CPU\cpu_core.o
                                                  uC-LIB\lib_mem.o
CPU_TS_Get32                                      uC-CPU\cpu_core.o
CPU_TS_TmrFreqGet                                 uC-CPU\cpu_core.o
CPU_TS_TmrFreqSet                                 uC-CPU\cpu_core.o
                                                  BSP\bsp.o
CPU_TS_TmrFreq_Hz                                 uC-CPU\cpu_core.o
CPU_TS_TmrInit                                    BSP\bsp.o
                                                  uC-CPU\cpu_core.o
CPU_TS_TmrRd                                      BSP\bsp.o
                                                  uC-CPU\cpu_core.o
CPU_TS_Update                                     uC-CPU\cpu_core.o
CPU_WaitForExcept                                 uC-CPU\ARM-Cortex-M3\GNU\cpu_a.o
CPU_WaitForInt                                    uC-CPU\ARM-Cortex-M3\GNU\cpu_a.o
CRC_CalcBlockCRC                                  BSP\STM32F2xx\src\stm32f2xx_crc.o
CRC_CalcCRC                                       BSP\STM32F2xx\src\stm32f2xx_crc.o
CRC_GetCRC                                        BSP\STM32F2xx\src\stm32f2xx_crc.o
CRC_GetIDRegister                                 BSP\STM32F2xx\src\stm32f2xx_crc.o
CRC_ResetDR                                       BSP\STM32F2xx\src\stm32f2xx_crc.o
CRC_SetIDRegister                                 BSP\STM32F2xx\src\stm32f2xx_crc.o
CRYP_AES_CBC                                      BSP\STM32F2xx\src\stm32f2xx_cryp_aes.o
CRYP_AES_CTR                                      BSP\STM32F2xx\src\stm32f2xx_cryp_aes.o
CRYP_AES_ECB                                      BSP\STM32F2xx\src\stm32f2xx_cryp_aes.o
CRYP_Cmd                                          BSP\STM32F2xx\src\stm32f2xx_cryp.o
                                                  BSP\STM32F2xx\src\stm32f2xx_cryp_aes.o
                                                  BSP\STM32F2xx\src\stm32f2xx_cryp_des.o
                                                  BSP\STM32F2xx\src\stm32f2xx_cryp_tdes.o
CRYP_DES_CBC                                      BSP\STM32F2xx\src\stm32f2xx_cryp_des.o
CRYP_DES_ECB                                      BSP\STM32F2xx\src\stm32f2xx_cryp_des.o
CRYP_DMACmd                                       BSP\STM32F2xx\src\stm32f2xx_cryp.o
CRYP_DataIn                                       BSP\STM32F2xx\src\stm32f2xx_cryp.o
                                                  BSP\STM32F2xx\src\stm32f2xx_cryp_aes.o
                                                  BSP\STM32F2xx\src\stm32f2xx_cryp_des.o
                                                  BSP\STM32F2xx\src\stm32f2xx_cryp_tdes.o
CRYP_DataOut                                      BSP\STM32F2xx\src\stm32f2xx_cryp.o
                                                  BSP\STM32F2xx\src\stm32f2xx_cryp_aes.o
                                                  BSP\STM32F2xx\src\stm32f2xx_cryp_des.o
                                                  BSP\STM32F2xx\src\stm32f2xx_cryp_tdes.o
CRYP_DeInit                                       BSP\STM32F2xx\src\stm32f2xx_cryp.o
CRYP_FIFOFlush                                    BSP\STM32F2xx\src\stm32f2xx_cryp.o
                                                  BSP\STM32F2xx\src\stm32f2xx_cryp_aes.o
                                                  BSP\STM32F2xx\src\stm32f2xx_cryp_des.o
                                                  BSP\STM32F2xx\src\stm32f2xx_cryp_tdes.o
CRYP_GetFlagStatus                                BSP\STM32F2xx\src\stm32f2xx_cryp.o
                                                  BSP\STM32F2xx\src\stm32f2xx_cryp_aes.o
                                                  BSP\STM32F2xx\src\stm32f2xx_cryp_des.o
                                                  BSP\STM32F2xx\src\stm32f2xx_cryp_tdes.o
CRYP_GetITStatus                                  BSP\STM32F2xx\src\stm32f2xx_cryp.o
CRYP_ITConfig                                     BSP\STM32F2xx\src\stm32f2xx_cryp.o
CRYP_IVInit                                       BSP\STM32F2xx\src\stm32f2xx_cryp.o
                                                  BSP\STM32F2xx\src\stm32f2xx_cryp_aes.o
                                                  BSP\STM32F2xx\src\stm32f2xx_cryp_des.o
                                                  BSP\STM32F2xx\src\stm32f2xx_cryp_tdes.o
CRYP_IVStructInit                                 BSP\STM32F2xx\src\stm32f2xx_cryp.o
CRYP_Init                                         BSP\STM32F2xx\src\stm32f2xx_cryp.o
                                                  BSP\STM32F2xx\src\stm32f2xx_cryp_aes.o
                                                  BSP\STM32F2xx\src\stm32f2xx_cryp_des.o
                                                  BSP\STM32F2xx\src\stm32f2xx_cryp_tdes.o
CRYP_KeyInit                                      BSP\STM32F2xx\src\stm32f2xx_cryp.o
                                                  BSP\STM32F2xx\src\stm32f2xx_cryp_aes.o
                                                  BSP\STM32F2xx\src\stm32f2xx_cryp_des.o
                                                  BSP\STM32F2xx\src\stm32f2xx_cryp_tdes.o
CRYP_KeyStructInit                                BSP\STM32F2xx\src\stm32f2xx_cryp.o
                                                  BSP\STM32F2xx\src\stm32f2xx_cryp_aes.o
                                                  BSP\STM32F2xx\src\stm32f2xx_cryp_des.o
                                                  BSP\STM32F2xx\src\stm32f2xx_cryp_tdes.o
CRYP_RestoreContext                               BSP\STM32F2xx\src\stm32f2xx_cryp.o
CRYP_SaveContext                                  BSP\STM32F2xx\src\stm32f2xx_cryp.o
CRYP_StructInit                                   BSP\STM32F2xx\src\stm32f2xx_cryp.o
CRYP_TDES_CBC                                     BSP\STM32F2xx\src\stm32f2xx_cryp_tdes.o
CRYP_TDES_ECB                                     BSP\STM32F2xx\src\stm32f2xx_cryp_tdes.o
DAC_ClearFlag                                     BSP\STM32F2xx\src\stm32f2xx_dac.o
DAC_ClearITPendingBit                             BSP\STM32F2xx\src\stm32f2xx_dac.o
DAC_Cmd                                           BSP\STM32F2xx\src\stm32f2xx_dac.o
DAC_DMACmd                                        BSP\STM32F2xx\src\stm32f2xx_dac.o
DAC_DeInit                                        BSP\STM32F2xx\src\stm32f2xx_dac.o
DAC_DualSoftwareTriggerCmd                        BSP\STM32F2xx\src\stm32f2xx_dac.o
DAC_GetDataOutputValue                            BSP\STM32F2xx\src\stm32f2xx_dac.o
DAC_GetFlagStatus                                 BSP\STM32F2xx\src\stm32f2xx_dac.o
DAC_GetITStatus                                   BSP\STM32F2xx\src\stm32f2xx_dac.o
DAC_ITConfig                                      BSP\STM32F2xx\src\stm32f2xx_dac.o
DAC_Init                                          BSP\STM32F2xx\src\stm32f2xx_dac.o
DAC_SetChannel1Data                               BSP\STM32F2xx\src\stm32f2xx_dac.o
DAC_SetChannel2Data                               BSP\STM32F2xx\src\stm32f2xx_dac.o
DAC_SetDualChannelData                            BSP\STM32F2xx\src\stm32f2xx_dac.o
DAC_SoftwareTriggerCmd                            BSP\STM32F2xx\src\stm32f2xx_dac.o
DAC_StructInit                                    BSP\STM32F2xx\src\stm32f2xx_dac.o
DAC_WaveGenerationCmd                             BSP\STM32F2xx\src\stm32f2xx_dac.o
DBGMCU_APB1PeriphConfig                           BSP\STM32F2xx\src\stm32f2xx_dbgmcu.o
DBGMCU_APB2PeriphConfig                           BSP\STM32F2xx\src\stm32f2xx_dbgmcu.o
DBGMCU_Config                                     BSP\STM32F2xx\src\stm32f2xx_dbgmcu.o
DBGMCU_GetDEVID                                   BSP\STM32F2xx\src\stm32f2xx_dbgmcu.o
DBGMCU_GetREVID                                   BSP\STM32F2xx\src\stm32f2xx_dbgmcu.o
DCMI_CROPCmd                                      BSP\STM32F2xx\src\stm32f2xx_dcmi.o
DCMI_CROPConfig                                   BSP\STM32F2xx\src\stm32f2xx_dcmi.o
DCMI_CaptureCmd                                   BSP\STM32F2xx\src\stm32f2xx_dcmi.o
DCMI_ClearFlag                                    BSP\STM32F2xx\src\stm32f2xx_dcmi.o
DCMI_ClearITPendingBit                            BSP\STM32F2xx\src\stm32f2xx_dcmi.o
DCMI_Cmd                                          BSP\STM32F2xx\src\stm32f2xx_dcmi.o
DCMI_DeInit                                       BSP\STM32F2xx\src\stm32f2xx_dcmi.o
DCMI_GetFlagStatus                                BSP\STM32F2xx\src\stm32f2xx_dcmi.o
DCMI_GetITStatus                                  BSP\STM32F2xx\src\stm32f2xx_dcmi.o
DCMI_ITConfig                                     BSP\STM32F2xx\src\stm32f2xx_dcmi.o
DCMI_Init                                         BSP\STM32F2xx\src\stm32f2xx_dcmi.o
DCMI_JPEGCmd                                      BSP\STM32F2xx\src\stm32f2xx_dcmi.o
DCMI_ReadData                                     BSP\STM32F2xx\src\stm32f2xx_dcmi.o
DCMI_SetEmbeddedSynchroCodes                      BSP\STM32F2xx\src\stm32f2xx_dcmi.o
DCMI_StructInit                                   BSP\STM32F2xx\src\stm32f2xx_dcmi.o
DMA_ClearFlag                                     BSP\STM32F2xx\src\stm32f2xx_dma.o
                                                  BSP\bsp_ioe.o
DMA_ClearITPendingBit                             BSP\STM32F2xx\src\stm32f2xx_dma.o
DMA_Cmd                                           BSP\STM32F2xx\src\stm32f2xx_dma.o
                                                  BSP\bsp_ioe.o
DMA_DeInit                                        BSP\STM32F2xx\src\stm32f2xx_dma.o
                                                  BSP\bsp_ioe.o
DMA_DoubleBufferModeCmd                           BSP\STM32F2xx\src\stm32f2xx_dma.o
DMA_DoubleBufferModeConfig                        BSP\STM32F2xx\src\stm32f2xx_dma.o
DMA_FlowControllerConfig                          BSP\STM32F2xx\src\stm32f2xx_dma.o
DMA_GetCmdStatus                                  BSP\STM32F2xx\src\stm32f2xx_dma.o
DMA_GetCurrDataCounter                            BSP\STM32F2xx\src\stm32f2xx_dma.o
DMA_GetCurrentMemoryTarget                        BSP\STM32F2xx\src\stm32f2xx_dma.o
DMA_GetFIFOStatus                                 BSP\STM32F2xx\src\stm32f2xx_dma.o
DMA_GetFlagStatus                                 BSP\STM32F2xx\src\stm32f2xx_dma.o
                                                  BSP\bsp_ioe.o
DMA_GetITStatus                                   BSP\STM32F2xx\src\stm32f2xx_dma.o
DMA_ITConfig                                      BSP\STM32F2xx\src\stm32f2xx_dma.o
DMA_Init                                          BSP\STM32F2xx\src\stm32f2xx_dma.o
                                                  BSP\bsp_ioe.o
DMA_MemoryTargetConfig                            BSP\STM32F2xx\src\stm32f2xx_dma.o
DMA_PeriphIncOffsetSizeConfig                     BSP\STM32F2xx\src\stm32f2xx_dma.o
DMA_SetCurrDataCounter                            BSP\STM32F2xx\src\stm32f2xx_dma.o
DMA_StructInit                                    BSP\STM32F2xx\src\stm32f2xx_dma.o
Default_Handler                                   BSP\cstartup.o
EXTI_ClearFlag                                    BSP\STM32F2xx\src\stm32f2xx_exti.o
EXTI_ClearITPendingBit                            BSP\STM32F2xx\src\stm32f2xx_exti.o
EXTI_DeInit                                       BSP\STM32F2xx\src\stm32f2xx_exti.o
EXTI_GenerateSWInterrupt                          BSP\STM32F2xx\src\stm32f2xx_exti.o
EXTI_GetFlagStatus                                BSP\STM32F2xx\src\stm32f2xx_exti.o
EXTI_GetITStatus                                  BSP\STM32F2xx\src\stm32f2xx_exti.o
EXTI_Init                                         BSP\STM32F2xx\src\stm32f2xx_exti.o
EXTI_StructInit                                   BSP\STM32F2xx\src\stm32f2xx_exti.o
FLASH_ClearFlag                                   BSP\STM32F2xx\src\stm32f2xx_flash.o
FLASH_DataCacheCmd                                BSP\STM32F2xx\src\stm32f2xx_flash.o
FLASH_DataCacheReset                              BSP\STM32F2xx\src\stm32f2xx_flash.o
FLASH_EraseAllSectors                             BSP\STM32F2xx\src\stm32f2xx_flash.o
FLASH_EraseSector                                 BSP\STM32F2xx\src\stm32f2xx_flash.o
FLASH_GetFlagStatus                               BSP\STM32F2xx\src\stm32f2xx_flash.o
FLASH_GetStatus                                   BSP\STM32F2xx\src\stm32f2xx_flash.o
FLASH_ITConfig                                    BSP\STM32F2xx\src\stm32f2xx_flash.o
FLASH_InstructionCacheCmd                         BSP\STM32F2xx\src\stm32f2xx_flash.o
FLASH_InstructionCacheReset                       BSP\STM32F2xx\src\stm32f2xx_flash.o
FLASH_Lock                                        BSP\STM32F2xx\src\stm32f2xx_flash.o
FLASH_OB_BORConfig                                BSP\STM32F2xx\src\stm32f2xx_flash.o
FLASH_OB_GetBOR                                   BSP\STM32F2xx\src\stm32f2xx_flash.o
FLASH_OB_GetRDP                                   BSP\STM32F2xx\src\stm32f2xx_flash.o
FLASH_OB_GetUser                                  BSP\STM32F2xx\src\stm32f2xx_flash.o
FLASH_OB_GetWRP                                   BSP\STM32F2xx\src\stm32f2xx_flash.o
FLASH_OB_Launch                                   BSP\STM32F2xx\src\stm32f2xx_flash.o
FLASH_OB_Lock                                     BSP\STM32F2xx\src\stm32f2xx_flash.o
FLASH_OB_RDPConfig                                BSP\STM32F2xx\src\stm32f2xx_flash.o
FLASH_OB_Unlock                                   BSP\STM32F2xx\src\stm32f2xx_flash.o
FLASH_OB_UserConfig                               BSP\STM32F2xx\src\stm32f2xx_flash.o
FLASH_OB_WRPConfig                                BSP\STM32F2xx\src\stm32f2xx_flash.o
FLASH_PrefetchBufferCmd                           BSP\STM32F2xx\src\stm32f2xx_flash.o
FLASH_ProgramByte                                 BSP\STM32F2xx\src\stm32f2xx_flash.o
FLASH_ProgramDoubleWord                           BSP\STM32F2xx\src\stm32f2xx_flash.o
FLASH_ProgramHalfWord                             BSP\STM32F2xx\src\stm32f2xx_flash.o
FLASH_ProgramWord                                 BSP\STM32F2xx\src\stm32f2xx_flash.o
FLASH_SetLatency                                  BSP\STM32F2xx\src\stm32f2xx_flash.o
FLASH_Unlock                                      BSP\STM32F2xx\src\stm32f2xx_flash.o
FLASH_WaitForLastOperation                        BSP\STM32F2xx\src\stm32f2xx_flash.o
FSMC_ClearFlag                                    BSP\STM32F2xx\src\stm32f2xx_fsmc.o
FSMC_ClearITPendingBit                            BSP\STM32F2xx\src\stm32f2xx_fsmc.o
FSMC_GetECC                                       BSP\STM32F2xx\src\stm32f2xx_fsmc.o
FSMC_GetFlagStatus                                BSP\STM32F2xx\src\stm32f2xx_fsmc.o
FSMC_GetITStatus                                  BSP\STM32F2xx\src\stm32f2xx_fsmc.o
FSMC_ITConfig                                     BSP\STM32F2xx\src\stm32f2xx_fsmc.o
FSMC_NANDCmd                                      BSP\STM32F2xx\src\stm32f2xx_fsmc.o
FSMC_NANDDeInit                                   BSP\STM32F2xx\src\stm32f2xx_fsmc.o
FSMC_NANDECCCmd                                   BSP\STM32F2xx\src\stm32f2xx_fsmc.o
FSMC_NANDInit                                     BSP\STM32F2xx\src\stm32f2xx_fsmc.o
FSMC_NANDStructInit                               BSP\STM32F2xx\src\stm32f2xx_fsmc.o
FSMC_NORSRAMCmd                                   BSP\STM32F2xx\src\stm32f2xx_fsmc.o
                                                  BSP\bsp.o
                                                  BSP\bsp_lcd.o
FSMC_NORSRAMDeInit                                BSP\STM32F2xx\src\stm32f2xx_fsmc.o
FSMC_NORSRAMInit                                  BSP\STM32F2xx\src\stm32f2xx_fsmc.o
                                                  BSP\bsp.o
                                                  BSP\bsp_lcd.o
FSMC_NORSRAMStructInit                            BSP\STM32F2xx\src\stm32f2xx_fsmc.o
FSMC_PCCARDCmd                                    BSP\STM32F2xx\src\stm32f2xx_fsmc.o
FSMC_PCCARDDeInit                                 BSP\STM32F2xx\src\stm32f2xx_fsmc.o
FSMC_PCCARDInit                                   BSP\STM32F2xx\src\stm32f2xx_fsmc.o
FSMC_PCCARDStructInit                             BSP\STM32F2xx\src\stm32f2xx_fsmc.o
GPIO_CLK                                          BSP\bsp.o
GPIO_DeInit                                       BSP\STM32F2xx\src\stm32f2xx_gpio.o
GPIO_Init                                         BSP\STM32F2xx\src\stm32f2xx_gpio.o
                                                  BSP\bsp.o
                                                  BSP\bsp_ioe.o
                                                  BSP\bsp_lcd.o
                                                  BSP\bsp_ser.o
GPIO_PIN                                          BSP\bsp.o
GPIO_PORT                                         BSP\bsp.o
GPIO_PinAFConfig                                  BSP\STM32F2xx\src\stm32f2xx_gpio.o
                                                  BSP\bsp.o
                                                  BSP\bsp_ioe.o
                                                  BSP\bsp_lcd.o
                                                  BSP\bsp_ser.o
GPIO_PinLockConfig                                BSP\STM32F2xx\src\stm32f2xx_gpio.o
GPIO_ReadInputData                                BSP\STM32F2xx\src\stm32f2xx_gpio.o
GPIO_ReadInputDataBit                             BSP\STM32F2xx\src\stm32f2xx_gpio.o
GPIO_ReadOutputData                               BSP\STM32F2xx\src\stm32f2xx_gpio.o
                                                  BSP\bsp.o
GPIO_ReadOutputDataBit                            BSP\STM32F2xx\src\stm32f2xx_gpio.o
GPIO_ResetBits                                    BSP\STM32F2xx\src\stm32f2xx_gpio.o
                                                  BSP\bsp.o
GPIO_SetBits                                      BSP\STM32F2xx\src\stm32f2xx_gpio.o
                                                  BSP\bsp.o
GPIO_StructInit                                   BSP\STM32F2xx\src\stm32f2xx_gpio.o
GPIO_ToggleBits                                   BSP\STM32F2xx\src\stm32f2xx_gpio.o
GPIO_Write                                        BSP\STM32F2xx\src\stm32f2xx_gpio.o
GPIO_WriteBit                                     BSP\STM32F2xx\src\stm32f2xx_gpio.o
HASH_ClearFlag                                    BSP\STM32F2xx\src\stm32f2xx_hash.o
HASH_ClearITPendingBit                            BSP\STM32F2xx\src\stm32f2xx_hash.o
HASH_DMACmd                                       BSP\STM32F2xx\src\stm32f2xx_hash.o
HASH_DataIn                                       BSP\STM32F2xx\src\stm32f2xx_hash.o
                                                  BSP\STM32F2xx\src\stm32f2xx_hash_md5.o
                                                  BSP\STM32F2xx\src\stm32f2xx_hash_sha1.o
HASH_DeInit                                       BSP\STM32F2xx\src\stm32f2xx_hash.o
                                                  BSP\STM32F2xx\src\stm32f2xx_hash_md5.o
                                                  BSP\STM32F2xx\src\stm32f2xx_hash_sha1.o
HASH_GetDigest                                    BSP\STM32F2xx\src\stm32f2xx_hash.o
                                                  BSP\STM32F2xx\src\stm32f2xx_hash_md5.o
                                                  BSP\STM32F2xx\src\stm32f2xx_hash_sha1.o
HASH_GetFlagStatus                                BSP\STM32F2xx\src\stm32f2xx_hash.o
                                                  BSP\STM32F2xx\src\stm32f2xx_hash_md5.o
                                                  BSP\STM32F2xx\src\stm32f2xx_hash_sha1.o
HASH_GetITStatus                                  BSP\STM32F2xx\src\stm32f2xx_hash.o
HASH_GetInFIFOWordsNbr                            BSP\STM32F2xx\src\stm32f2xx_hash.o
HASH_ITConfig                                     BSP\STM32F2xx\src\stm32f2xx_hash.o
HASH_Init                                         BSP\STM32F2xx\src\stm32f2xx_hash.o
                                                  BSP\STM32F2xx\src\stm32f2xx_hash_md5.o
                                                  BSP\STM32F2xx\src\stm32f2xx_hash_sha1.o
HASH_MD5                                          BSP\STM32F2xx\src\stm32f2xx_hash_md5.o
HASH_Reset                                        BSP\STM32F2xx\src\stm32f2xx_hash.o
HASH_RestoreContext                               BSP\STM32F2xx\src\stm32f2xx_hash.o
HASH_SHA1                                         BSP\STM32F2xx\src\stm32f2xx_hash_sha1.o
HASH_SaveContext                                  BSP\STM32F2xx\src\stm32f2xx_hash.o
HASH_SetLastWordValidBitsNbr                      BSP\STM32F2xx\src\stm32f2xx_hash.o
                                                  BSP\STM32F2xx\src\stm32f2xx_hash_md5.o
                                                  BSP\STM32F2xx\src\stm32f2xx_hash_sha1.o
HASH_StartDigest                                  BSP\STM32F2xx\src\stm32f2xx_hash.o
                                                  BSP\STM32F2xx\src\stm32f2xx_hash_md5.o
                                                  BSP\STM32F2xx\src\stm32f2xx_hash_sha1.o
HASH_StructInit                                   BSP\STM32F2xx\src\stm32f2xx_hash.o
HMAC_MD5                                          BSP\STM32F2xx\src\stm32f2xx_hash_md5.o
HMAC_SHA1                                         BSP\STM32F2xx\src\stm32f2xx_hash_sha1.o
I2C_ARPCmd                                        BSP\STM32F2xx\src\stm32f2xx_i2c.o
I2C_AcknowledgeConfig                             BSP\STM32F2xx\src\stm32f2xx_i2c.o
I2C_CalculatePEC                                  BSP\STM32F2xx\src\stm32f2xx_i2c.o
I2C_CheckEvent                                    BSP\STM32F2xx\src\stm32f2xx_i2c.o
                                                  BSP\bsp_ioe.o
I2C_ClearFlag                                     BSP\STM32F2xx\src\stm32f2xx_i2c.o
I2C_ClearITPendingBit                             BSP\STM32F2xx\src\stm32f2xx_i2c.o
I2C_Cmd                                           BSP\STM32F2xx\src\stm32f2xx_i2c.o
I2C_DMACmd                                        BSP\STM32F2xx\src\stm32f2xx_i2c.o
                                                  BSP\bsp_ioe.o
I2C_DMALastTransferCmd                            BSP\STM32F2xx\src\stm32f2xx_i2c.o
                                                  BSP\bsp_ioe.o
I2C_DeInit                                        BSP\STM32F2xx\src\stm32f2xx_i2c.o
I2C_DualAddressCmd                                BSP\STM32F2xx\src\stm32f2xx_i2c.o
I2C_FastModeDutyCycleConfig                       BSP\STM32F2xx\src\stm32f2xx_i2c.o
I2C_GeneralCallCmd                                BSP\STM32F2xx\src\stm32f2xx_i2c.o
I2C_GenerateSTART                                 BSP\STM32F2xx\src\stm32f2xx_i2c.o
                                                  BSP\bsp_ioe.o
I2C_GenerateSTOP                                  BSP\STM32F2xx\src\stm32f2xx_i2c.o
                                                  BSP\bsp_ioe.o
I2C_GetFlagStatus                                 BSP\STM32F2xx\src\stm32f2xx_i2c.o
                                                  BSP\bsp_ioe.o
I2C_GetITStatus                                   BSP\STM32F2xx\src\stm32f2xx_i2c.o
I2C_GetLastEvent                                  BSP\STM32F2xx\src\stm32f2xx_i2c.o
I2C_GetPEC                                        BSP\STM32F2xx\src\stm32f2xx_i2c.o
I2C_ITConfig                                      BSP\STM32F2xx\src\stm32f2xx_i2c.o
I2C_Init                                          BSP\STM32F2xx\src\stm32f2xx_i2c.o
                                                  BSP\bsp_ioe.o
I2C_NACKPositionConfig                            BSP\STM32F2xx\src\stm32f2xx_i2c.o
I2C_OwnAddress2Config                             BSP\STM32F2xx\src\stm32f2xx_i2c.o
I2C_PECPositionConfig                             BSP\STM32F2xx\src\stm32f2xx_i2c.o
I2C_ReadRegister                                  BSP\STM32F2xx\src\stm32f2xx_i2c.o
I2C_ReceiveData                                   BSP\STM32F2xx\src\stm32f2xx_i2c.o
I2C_SMBusAlertConfig                              BSP\STM32F2xx\src\stm32f2xx_i2c.o
I2C_Send7bitAddress                               BSP\STM32F2xx\src\stm32f2xx_i2c.o
                                                  BSP\bsp_ioe.o
I2C_SendData                                      BSP\STM32F2xx\src\stm32f2xx_i2c.o
                                                  BSP\bsp_ioe.o
I2C_SoftwareResetCmd                              BSP\STM32F2xx\src\stm32f2xx_i2c.o
I2C_StretchClockCmd                               BSP\STM32F2xx\src\stm32f2xx_i2c.o
I2C_StructInit                                    BSP\STM32F2xx\src\stm32f2xx_i2c.o
I2C_TransmitPEC                                   BSP\STM32F2xx\src\stm32f2xx_i2c.o
I2S_Cmd                                           BSP\STM32F2xx\src\stm32f2xx_spi.o
I2S_Init                                          BSP\STM32F2xx\src\stm32f2xx_spi.o
I2S_StructInit                                    BSP\STM32F2xx\src\stm32f2xx_spi.o
IOE_TimeOut                                       BSP\bsp_ioe.o
IWDG_Enable                                       BSP\STM32F2xx\src\stm32f2xx_iwdg.o
IWDG_GetFlagStatus                                BSP\STM32F2xx\src\stm32f2xx_iwdg.o
IWDG_ReloadCounter                                BSP\STM32F2xx\src\stm32f2xx_iwdg.o
IWDG_SetPrescaler                                 BSP\STM32F2xx\src\stm32f2xx_iwdg.o
IWDG_SetReload                                    BSP\STM32F2xx\src\stm32f2xx_iwdg.o
IWDG_WriteAccessCmd                               BSP\STM32F2xx\src\stm32f2xx_iwdg.o
Math_Init                                         uC-LIB\lib_math.o
Math_Rand                                         uC-LIB\lib_math.o
Math_RandSeed                                     uC-LIB\lib_math.o
Math_RandSeedCur                                  uC-LIB\lib_math.o
Math_RandSetSeed                                  uC-LIB\lib_math.o
Mem_Clr                                           uC-LIB\lib_mem.o
                                                  uC-CPU\cpu_core.o
Mem_Cmp                                           uC-LIB\lib_mem.o
Mem_Copy                                          uC-LIB\lib_mem.o
Mem_Heap                                          uC-LIB\lib_mem.o
Mem_HeapAlloc                                     uC-LIB\lib_mem.o
Mem_HeapGetSizeRem                                uC-LIB\lib_mem.o
Mem_Init                                          uC-LIB\lib_mem.o
                                                  APP\app.o
Mem_Move                                          uC-LIB\lib_mem.o
Mem_PoolBlkFree                                   uC-LIB\lib_mem.o
Mem_PoolBlkGet                                    uC-LIB\lib_mem.o
Mem_PoolBlkGetNbrAvail                            uC-LIB\lib_mem.o
Mem_PoolBlkGetUsedAtIx                            uC-LIB\lib_mem.o
Mem_PoolBlkIxGet                                  uC-LIB\lib_mem.o
Mem_PoolClr                                       uC-LIB\lib_mem.o
Mem_PoolCreate                                    uC-LIB\lib_mem.o
Mem_PoolHeap                                      uC-LIB\lib_mem.o
Mem_PoolTbl                                       uC-LIB\lib_mem.o
Mem_SegGetSizeRem                                 uC-LIB\lib_mem.o
Mem_Set                                           uC-LIB\lib_mem.o
NVIC_Init                                         BSP\STM32F2xx\src\misc.o
NVIC_PriorityGroupConfig                          BSP\STM32F2xx\src\misc.o
NVIC_SetVectorTable                               BSP\STM32F2xx\src\misc.o
NVIC_SystemLPConfig                               BSP\STM32F2xx\src\misc.o
OSCPUUsage                                        uCOS-II\Source\os_core.o
OSCtxSw                                           uCOS-II\Ports\ARM-Cortex-M3\Generic\GNU\os_cpu_a.o
                                                  uCOS-II\Source\os_core.o
OSCtxSwCtr                                        uCOS-II\Source\os_core.o
OSDataSize                                        uCOS-II\Ports\ARM-Cortex-M3\Generic\GNU\os_dbg.o
OSDebugEn                                         uCOS-II\Ports\ARM-Cortex-M3\Generic\GNU\os_dbg.o
OSDebugInit                                       uCOS-II\Ports\ARM-Cortex-M3\Generic\GNU\os_dbg.o
                                                  uCOS-II\Source\os_core.o
OSEndiannessTest                                  uCOS-II\Ports\ARM-Cortex-M3\Generic\GNU\os_dbg.o
OSEventEn                                         uCOS-II\Ports\ARM-Cortex-M3\Generic\GNU\os_dbg.o
OSEventFreeList                                   uCOS-II\Source\os_core.o
                                                  uCOS-II\Source\os_mbox.o
                                                  uCOS-II\Source\os_mutex.o
                                                  uCOS-II\Source\os_q.o
                                                  uCOS-II\Source\os_sem.o
OSEventMax                                        uCOS-II\Ports\ARM-Cortex-M3\Generic\GNU\os_dbg.o
OSEventMultiEn                                    uCOS-II\Ports\ARM-Cortex-M3\Generic\GNU\os_dbg.o
OSEventNameEn                                     uCOS-II\Ports\ARM-Cortex-M3\Generic\GNU\os_dbg.o
OSEventNameGet                                    uCOS-II\Source\os_core.o
OSEventNameSet                                    uCOS-II\Source\os_core.o
                                                  BSP\OS\bsp_os.o
                                                  uCOS-II\Source\os_tmr.o
OSEventPendMulti                                  uCOS-II\Source\os_core.o
OSEventSize                                       uCOS-II\Ports\ARM-Cortex-M3\Generic\GNU\os_dbg.o
OSEventTbl                                        uCOS-II\Source\os_core.o
OSEventTblSize                                    uCOS-II\Ports\ARM-Cortex-M3\Generic\GNU\os_dbg.o
OSFlagAccept                                      uCOS-II\Source\os_flag.o
OSFlagCreate                                      uCOS-II\Source\os_flag.o
OSFlagDel                                         uCOS-II\Source\os_flag.o
OSFlagEn                                          uCOS-II\Ports\ARM-Cortex-M3\Generic\GNU\os_dbg.o
OSFlagFreeList                                    uCOS-II\Source\os_core.o
                                                  uCOS-II\Source\os_flag.o
OSFlagGrpSize                                     uCOS-II\Ports\ARM-Cortex-M3\Generic\GNU\os_dbg.o
OSFlagMax                                         uCOS-II\Ports\ARM-Cortex-M3\Generic\GNU\os_dbg.o
OSFlagNameEn                                      uCOS-II\Ports\ARM-Cortex-M3\Generic\GNU\os_dbg.o
OSFlagNameGet                                     uCOS-II\Source\os_flag.o
OSFlagNameSet                                     uCOS-II\Source\os_flag.o
OSFlagNodeSize                                    uCOS-II\Ports\ARM-Cortex-M3\Generic\GNU\os_dbg.o
OSFlagPend                                        uCOS-II\Source\os_flag.o
OSFlagPendGetFlagsRdy                             uCOS-II\Source\os_flag.o
OSFlagPost                                        uCOS-II\Source\os_flag.o
OSFlagQuery                                       uCOS-II\Source\os_flag.o
OSFlagTbl                                         uCOS-II\Source\os_core.o
                                                  uCOS-II\Source\os_flag.o
OSFlagWidth                                       uCOS-II\Ports\ARM-Cortex-M3\Generic\GNU\os_dbg.o
OSIdleCtr                                         uCOS-II\Source\os_core.o
OSIdleCtrMax                                      uCOS-II\Source\os_core.o
OSIdleCtrRun                                      uCOS-II\Source\os_core.o
OSInit                                            uCOS-II\Source\os_core.o
                                                  APP\app.o
OSInitHookBegin                                   uCOS-II\Ports\ARM-Cortex-M3\Generic\GNU\os_cpu_c.o
                                                  uCOS-II\Source\os_core.o
OSInitHookEnd                                     uCOS-II\Ports\ARM-Cortex-M3\Generic\GNU\os_cpu_c.o
                                                  uCOS-II\Source\os_core.o
OSIntCtxSw                                        uCOS-II\Ports\ARM-Cortex-M3\Generic\GNU\os_cpu_a.o
                                                  uCOS-II\Source\os_core.o
OSIntEnter                                        uCOS-II\Source\os_core.o
                                                  BSP\bsp_int.o
OSIntExit                                         uCOS-II\Source\os_core.o
                                                  BSP\bsp_int.o
                                                  uCOS-II\Ports\ARM-Cortex-M3\Generic\GNU\os_cpu_c.o
OSIntNesting                                      uCOS-II\Ports\ARM-Cortex-M3\Generic\GNU\os_cpu_c.o
                                                  uCOS-II\Source\os_core.o
                                                  uCOS-II\Source\os_flag.o
                                                  uCOS-II\Source\os_mbox.o
                                                  uCOS-II\Source\os_mem.o
                                                  uCOS-II\Source\os_mutex.o
                                                  uCOS-II\Source\os_q.o
                                                  uCOS-II\Source\os_sem.o
                                                  uCOS-II\Source\os_task.o
                                                  uCOS-II\Source\os_time.o
                                                  uCOS-II\Source\os_tmr.o
OSLockNesting                                     uCOS-II\Source\os_core.o
                                                  uCOS-II\Source\os_flag.o
                                                  uCOS-II\Source\os_mbox.o
                                                  uCOS-II\Source\os_mutex.o
                                                  uCOS-II\Source\os_q.o
                                                  uCOS-II\Source\os_sem.o
                                                  uCOS-II\Source\os_task.o
                                                  uCOS-II\Source\os_time.o
OSLowestPrio                                      uCOS-II\Ports\ARM-Cortex-M3\Generic\GNU\os_dbg.o
OSMboxAccept                                      uCOS-II\Source\os_mbox.o
OSMboxCreate                                      uCOS-II\Source\os_mbox.o
OSMboxDel                                         uCOS-II\Source\os_mbox.o
OSMboxEn                                          uCOS-II\Ports\ARM-Cortex-M3\Generic\GNU\os_dbg.o
OSMboxPend                                        uCOS-II\Source\os_mbox.o
OSMboxPendAbort                                   uCOS-II\Source\os_mbox.o
OSMboxPost                                        uCOS-II\Source\os_mbox.o
OSMboxPostOpt                                     uCOS-II\Source\os_mbox.o
OSMboxQuery                                       uCOS-II\Source\os_mbox.o
OSMemCreate                                       uCOS-II\Source\os_mem.o
OSMemEn                                           uCOS-II\Ports\ARM-Cortex-M3\Generic\GNU\os_dbg.o
OSMemFreeList                                     uCOS-II\Source\os_core.o
                                                  uCOS-II\Source\os_mem.o
OSMemGet                                          uCOS-II\Source\os_mem.o
OSMemMax                                          uCOS-II\Ports\ARM-Cortex-M3\Generic\GNU\os_dbg.o
OSMemNameEn                                       uCOS-II\Ports\ARM-Cortex-M3\Generic\GNU\os_dbg.o
OSMemNameGet                                      uCOS-II\Source\os_mem.o
OSMemNameSet                                      uCOS-II\Source\os_mem.o
OSMemPut                                          uCOS-II\Source\os_mem.o
OSMemQuery                                        uCOS-II\Source\os_mem.o
OSMemSize                                         uCOS-II\Ports\ARM-Cortex-M3\Generic\GNU\os_dbg.o
OSMemTbl                                          uCOS-II\Source\os_core.o
                                                  uCOS-II\Source\os_mem.o
OSMemTblSize                                      uCOS-II\Ports\ARM-Cortex-M3\Generic\GNU\os_dbg.o
OSMutexAccept                                     uCOS-II\Source\os_mutex.o
OSMutexCreate                                     uCOS-II\Source\os_mutex.o
OSMutexDel                                        uCOS-II\Source\os_mutex.o
OSMutexEn                                         uCOS-II\Ports\ARM-Cortex-M3\Generic\GNU\os_dbg.o
OSMutexPend                                       uCOS-II\Source\os_mutex.o
OSMutexPost                                       uCOS-II\Source\os_mutex.o
OSMutexQuery                                      uCOS-II\Source\os_mutex.o
OSPrioCur                                         uCOS-II\Ports\ARM-Cortex-M3\Generic\GNU\os_cpu_a.o
                                                  uCOS-II\Source\os_core.o
                                                  uCOS-II\Source\os_mutex.o
OSPrioHighRdy                                     uCOS-II\Ports\ARM-Cortex-M3\Generic\GNU\os_cpu_a.o
                                                  uCOS-II\Source\os_core.o
OSPtrSize                                         uCOS-II\Ports\ARM-Cortex-M3\Generic\GNU\os_dbg.o
OSQAccept                                         uCOS-II\Source\os_q.o
OSQCreate                                         uCOS-II\Source\os_q.o
OSQDel                                            uCOS-II\Source\os_q.o
OSQEn                                             uCOS-II\Ports\ARM-Cortex-M3\Generic\GNU\os_dbg.o
OSQFlush                                          uCOS-II\Source\os_q.o
OSQFreeList                                       uCOS-II\Source\os_core.o
                                                  uCOS-II\Source\os_q.o
OSQMax                                            uCOS-II\Ports\ARM-Cortex-M3\Generic\GNU\os_dbg.o
OSQPend                                           uCOS-II\Source\os_q.o
OSQPendAbort                                      uCOS-II\Source\os_q.o
OSQPost                                           uCOS-II\Source\os_q.o
OSQPostFront                                      uCOS-II\Source\os_q.o
OSQPostOpt                                        uCOS-II\Source\os_q.o
OSQQuery                                          uCOS-II\Source\os_q.o
OSQSize                                           uCOS-II\Ports\ARM-Cortex-M3\Generic\GNU\os_dbg.o
OSQTbl                                            uCOS-II\Source\os_core.o
                                                  uCOS-II\Source\os_q.o
OSRdyGrp                                          uCOS-II\Source\os_core.o
                                                  uCOS-II\Source\os_flag.o
                                                  uCOS-II\Source\os_mutex.o
                                                  uCOS-II\Source\os_task.o
                                                  uCOS-II\Source\os_time.o
OSRdyTbl                                          uCOS-II\Source\os_core.o
                                                  uCOS-II\Source\os_flag.o
                                                  uCOS-II\Source\os_mutex.o
                                                  uCOS-II\Source\os_task.o
                                                  uCOS-II\Source\os_time.o
OSRdyTblSize                                      uCOS-II\Ports\ARM-Cortex-M3\Generic\GNU\os_dbg.o
OSRunning                                         uCOS-II\Ports\ARM-Cortex-M3\Generic\GNU\os_cpu_a.o
                                                  uCOS-II\Source\os_core.o
                                                  uCOS-II\Source\os_task.o
OSSchedLock                                       uCOS-II\Source\os_core.o
                                                  uCOS-II\Source\os_tmr.o
OSSchedUnlock                                     uCOS-II\Source\os_core.o
                                                  uCOS-II\Source\os_tmr.o
OSSemAccept                                       uCOS-II\Source\os_sem.o
OSSemCreate                                       uCOS-II\Source\os_sem.o
                                                  BSP\OS\bsp_os.o
                                                  uCOS-II\Source\os_tmr.o
OSSemDel                                          uCOS-II\Source\os_sem.o
OSSemEn                                           uCOS-II\Ports\ARM-Cortex-M3\Generic\GNU\os_dbg.o
OSSemPend                                         uCOS-II\Source\os_sem.o
                                                  BSP\OS\bsp_os.o
                                                  uCOS-II\Source\os_tmr.o
OSSemPendAbort                                    uCOS-II\Source\os_sem.o
OSSemPost                                         uCOS-II\Source\os_sem.o
                                                  BSP\OS\bsp_os.o
                                                  uCOS-II\Source\os_tmr.o
OSSemQuery                                        uCOS-II\Source\os_sem.o
OSSemSet                                          uCOS-II\Source\os_sem.o
OSStart                                           uCOS-II\Source\os_core.o
                                                  APP\app.o
OSStartHighRdy                                    uCOS-II\Ports\ARM-Cortex-M3\Generic\GNU\os_cpu_a.o
                                                  uCOS-II\Source\os_core.o
OSStatInit                                        uCOS-II\Source\os_core.o
                                                  APP\app.o
OSStatRdy                                         uCOS-II\Source\os_core.o
OSStkWidth                                        uCOS-II\Ports\ARM-Cortex-M3\Generic\GNU\os_dbg.o
OSTCBCur                                          uCOS-II\Ports\ARM-Cortex-M3\Generic\GNU\os_cpu_a.o
                                                  uCOS-II\Source\os_core.o
                                                  uCOS-II\Source\os_flag.o
                                                  uCOS-II\Source\os_mbox.o
                                                  uCOS-II\Source\os_mutex.o
                                                  uCOS-II\Source\os_q.o
                                                  uCOS-II\Source\os_sem.o
                                                  uCOS-II\Source\os_task.o
                                                  uCOS-II\Source\os_time.o
OSTCBFreeList                                     uCOS-II\Source\os_core.o
                                                  uCOS-II\Source\os_task.o
OSTCBHighRdy                                      uCOS-II\Ports\ARM-Cortex-M3\Generic\GNU\os_cpu_a.o
                                                  uCOS-II\Source\os_core.o
OSTCBInitHook                                     uCOS-II\Ports\ARM-Cortex-M3\Generic\GNU\os_cpu_c.o
                                                  uCOS-II\Source\os_core.o
OSTCBList                                         uCOS-II\Source\os_core.o
                                                  uCOS-II\Source\os_task.o
OSTCBPrioTbl                                      uCOS-II\Source\os_core.o
                                                  uCOS-II\Source\os_mutex.o
                                                  uCOS-II\Source\os_task.o
                                                  uCOS-II\Source\os_time.o
OSTCBPrioTblMax                                   uCOS-II\Ports\ARM-Cortex-M3\Generic\GNU\os_dbg.o
OSTCBSize                                         uCOS-II\Ports\ARM-Cortex-M3\Generic\GNU\os_dbg.o
OSTCBTbl                                          uCOS-II\Source\os_core.o
OSTaskChangePrio                                  uCOS-II\Source\os_task.o
OSTaskCreate                                      uCOS-II\Source\os_task.o
OSTaskCreateEn                                    uCOS-II\Ports\ARM-Cortex-M3\Generic\GNU\os_dbg.o
OSTaskCreateExt                                   uCOS-II\Source\os_task.o
                                                  APP\app.o
                                                  uCOS-II\Source\os_core.o
                                                  uCOS-II\Source\os_tmr.o
OSTaskCreateExtEn                                 uCOS-II\Ports\ARM-Cortex-M3\Generic\GNU\os_dbg.o
OSTaskCreateHook                                  uCOS-II\Ports\ARM-Cortex-M3\Generic\GNU\os_cpu_c.o
                                                  uCOS-II\Source\os_core.o
OSTaskCtr                                         uCOS-II\Source\os_core.o
                                                  uCOS-II\Source\os_task.o
OSTaskDel                                         uCOS-II\Source\os_task.o
OSTaskDelEn                                       uCOS-II\Ports\ARM-Cortex-M3\Generic\GNU\os_dbg.o
OSTaskDelHook                                     uCOS-II\Ports\ARM-Cortex-M3\Generic\GNU\os_cpu_c.o
                                                  uCOS-II\Source\os_task.o
OSTaskDelReq                                      uCOS-II\Source\os_task.o
OSTaskIdleHook                                    uCOS-II\Ports\ARM-Cortex-M3\Generic\GNU\os_cpu_c.o
                                                  uCOS-II\Source\os_core.o
OSTaskIdleStk                                     uCOS-II\Source\os_core.o
OSTaskIdleStkSize                                 uCOS-II\Ports\ARM-Cortex-M3\Generic\GNU\os_dbg.o
OSTaskMax                                         uCOS-II\Ports\ARM-Cortex-M3\Generic\GNU\os_dbg.o
OSTaskNameEn                                      uCOS-II\Ports\ARM-Cortex-M3\Generic\GNU\os_dbg.o
OSTaskNameGet                                     uCOS-II\Source\os_task.o
OSTaskNameSet                                     uCOS-II\Source\os_task.o
                                                  APP\app.o
                                                  uCOS-II\Source\os_core.o
                                                  uCOS-II\Source\os_tmr.o
OSTaskProfileEn                                   uCOS-II\Ports\ARM-Cortex-M3\Generic\GNU\os_dbg.o
OSTaskQuery                                       uCOS-II\Source\os_task.o
OSTaskRegGet                                      uCOS-II\Source\os_task.o
OSTaskRegGetID                                    uCOS-II\Source\os_task.o
OSTaskRegNextAvailID                              uCOS-II\Source\os_core.o
                                                  uCOS-II\Source\os_task.o
OSTaskRegSet                                      uCOS-II\Source\os_task.o
OSTaskResume                                      uCOS-II\Source\os_task.o
OSTaskReturnHook                                  uCOS-II\Ports\ARM-Cortex-M3\Generic\GNU\os_cpu_c.o
                                                  uCOS-II\Source\os_task.o
OSTaskStatEn                                      uCOS-II\Ports\ARM-Cortex-M3\Generic\GNU\os_dbg.o
OSTaskStatHook                                    uCOS-II\Ports\ARM-Cortex-M3\Generic\GNU\os_cpu_c.o
                                                  uCOS-II\Source\os_core.o
OSTaskStatStk                                     uCOS-II\Source\os_core.o
OSTaskStatStkChkEn                                uCOS-II\Ports\ARM-Cortex-M3\Generic\GNU\os_dbg.o
OSTaskStatStkSize                                 uCOS-II\Ports\ARM-Cortex-M3\Generic\GNU\os_dbg.o
OSTaskStkChk                                      uCOS-II\Source\os_task.o
                                                  uCOS-II\Source\os_core.o
OSTaskStkInit                                     uCOS-II\Ports\ARM-Cortex-M3\Generic\GNU\os_cpu_c.o
                                                  uCOS-II\Source\os_task.o
OSTaskSuspend                                     uCOS-II\Source\os_task.o
                                                  uCOS-II\Source\os_core.o
OSTaskSwHook                                      uCOS-II\Ports\ARM-Cortex-M3\Generic\GNU\os_cpu_c.o
                                                  uCOS-II\Ports\ARM-Cortex-M3\Generic\GNU\os_cpu_a.o
OSTaskSwHookEn                                    uCOS-II\Ports\ARM-Cortex-M3\Generic\GNU\os_dbg.o
OSTickStepState                                   uCOS-II\Source\os_core.o
OSTicksPerSec                                     uCOS-II\Ports\ARM-Cortex-M3\Generic\GNU\os_dbg.o
OSTime                                            uCOS-II\Source\os_core.o
                                                  uCOS-II\Source\os_time.o
OSTimeDly                                         uCOS-II\Source\os_time.o
                                                  uCOS-II\Source\os_core.o
OSTimeDlyHMSM                                     uCOS-II\Source\os_time.o
                                                  APP\app.o
                                                  BSP\OS\bsp_os.o
OSTimeDlyResume                                   uCOS-II\Source\os_time.o
OSTimeGet                                         uCOS-II\Source\os_time.o
OSTimeSet                                         uCOS-II\Source\os_time.o
OSTimeTick                                        uCOS-II\Source\os_core.o
                                                  uCOS-II\Ports\ARM-Cortex-M3\Generic\GNU\os_cpu_c.o
OSTimeTickHook                                    uCOS-II\Ports\ARM-Cortex-M3\Generic\GNU\os_cpu_c.o
                                                  uCOS-II\Source\os_core.o
OSTimeTickHookEn                                  uCOS-II\Ports\ARM-Cortex-M3\Generic\GNU\os_dbg.o
OSTmrCfgMax                                       uCOS-II\Ports\ARM-Cortex-M3\Generic\GNU\os_dbg.o
OSTmrCfgNameEn                                    uCOS-II\Ports\ARM-Cortex-M3\Generic\GNU\os_dbg.o
OSTmrCfgTicksPerSec                               uCOS-II\Ports\ARM-Cortex-M3\Generic\GNU\os_dbg.o
OSTmrCfgWheelSize                                 uCOS-II\Ports\ARM-Cortex-M3\Generic\GNU\os_dbg.o
OSTmrCreate                                       uCOS-II\Source\os_tmr.o
OSTmrDel                                          uCOS-II\Source\os_tmr.o
OSTmrEn                                           uCOS-II\Ports\ARM-Cortex-M3\Generic\GNU\os_dbg.o
OSTmrFree                                         uCOS-II\Source\os_core.o
                                                  uCOS-II\Source\os_tmr.o
OSTmrFreeList                                     uCOS-II\Source\os_core.o
                                                  uCOS-II\Source\os_tmr.o
OSTmrNameGet                                      uCOS-II\Source\os_tmr.o
OSTmrRemainGet                                    uCOS-II\Source\os_tmr.o
OSTmrSem                                          uCOS-II\Source\os_core.o
                                                  uCOS-II\Source\os_tmr.o
OSTmrSemSignal                                    uCOS-II\Source\os_core.o
                                                  uCOS-II\Source\os_tmr.o
OSTmrSignal                                       uCOS-II\Source\os_tmr.o
                                                  uCOS-II\Ports\ARM-Cortex-M3\Generic\GNU\os_cpu_c.o
OSTmrSize                                         uCOS-II\Ports\ARM-Cortex-M3\Generic\GNU\os_dbg.o
OSTmrStart                                        uCOS-II\Source\os_tmr.o
OSTmrStateGet                                     uCOS-II\Source\os_tmr.o
OSTmrStop                                         uCOS-II\Source\os_tmr.o
OSTmrTaskStk                                      uCOS-II\Source\os_core.o
                                                  uCOS-II\Source\os_tmr.o
OSTmrTbl                                          uCOS-II\Ports\ARM-Cortex-M3\Generic\GNU\os_dbg.o
                                                  uCOS-II\Source\os_core.o
                                                  uCOS-II\Source\os_tmr.o
OSTmrTblSize                                      uCOS-II\Ports\ARM-Cortex-M3\Generic\GNU\os_dbg.o
OSTmrTime                                         uCOS-II\Source\os_core.o
                                                  uCOS-II\Source\os_tmr.o
OSTmrUsed                                         uCOS-II\Source\os_core.o
                                                  uCOS-II\Source\os_tmr.o
OSTmrWheelSize                                    uCOS-II\Ports\ARM-Cortex-M3\Generic\GNU\os_dbg.o
OSTmrWheelTbl                                     uCOS-II\Ports\ARM-Cortex-M3\Generic\GNU\os_dbg.o
                                                  uCOS-II\Source\os_core.o
                                                  uCOS-II\Source\os_tmr.o
OSTmrWheelTblSize                                 uCOS-II\Ports\ARM-Cortex-M3\Generic\GNU\os_dbg.o
OSTmr_Init                                        uCOS-II\Source\os_tmr.o
                                                  uCOS-II\Source\os_core.o
OSUnMapTbl                                        uCOS-II\Source\os_core.o
OSVersion                                         uCOS-II\Source\os_core.o
OSVersionNbr                                      uCOS-II\Ports\ARM-Cortex-M3\Generic\GNU\os_dbg.o
OS_CPU_ExceptStk                                  uCOS-II\Ports\ARM-Cortex-M3\Generic\GNU\os_cpu_c.o
OS_CPU_ExceptStkBase                              uCOS-II\Ports\ARM-Cortex-M3\Generic\GNU\os_cpu_a.o
                                                  uCOS-II\Ports\ARM-Cortex-M3\Generic\GNU\os_cpu_c.o
OS_CPU_PendSVHandler                              uCOS-II\Ports\ARM-Cortex-M3\Generic\GNU\os_cpu_a.o
                                                  BSP\cstartup.o
OS_CPU_SR_Restore                                 uCOS-II\Ports\ARM-Cortex-M3\Generic\GNU\os_cpu_a.o
                                                  uCOS-II\Ports\ARM-Cortex-M3\Generic\GNU\os_cpu_c.o
                                                  uCOS-II\Source\os_core.o
                                                  uCOS-II\Source\os_flag.o
                                                  uCOS-II\Source\os_mbox.o
                                                  uCOS-II\Source\os_mem.o
                                                  uCOS-II\Source\os_mutex.o
                                                  uCOS-II\Source\os_q.o
                                                  uCOS-II\Source\os_sem.o
                                                  uCOS-II\Source\os_task.o
                                                  uCOS-II\Source\os_time.o
OS_CPU_SR_Save                                    uCOS-II\Ports\ARM-Cortex-M3\Generic\GNU\os_cpu_a.o
                                                  uCOS-II\Ports\ARM-Cortex-M3\Generic\GNU\os_cpu_c.o
                                                  uCOS-II\Source\os_core.o
                                                  uCOS-II\Source\os_flag.o
                                                  uCOS-II\Source\os_mbox.o
                                                  uCOS-II\Source\os_mem.o
                                                  uCOS-II\Source\os_mutex.o
                                                  uCOS-II\Source\os_q.o
                                                  uCOS-II\Source\os_sem.o
                                                  uCOS-II\Source\os_task.o
                                                  uCOS-II\Source\os_time.o
OS_CPU_SysTickHandler                             uCOS-II\Ports\ARM-Cortex-M3\Generic\GNU\os_cpu_c.o
                                                  BSP\cstartup.o
OS_CPU_SysTickInit                                uCOS-II\Ports\ARM-Cortex-M3\Generic\GNU\os_cpu_c.o
                                                  BSP\bsp.o
OS_Dummy                                          uCOS-II\Source\os_core.o
                                                  uCOS-II\Source\os_task.o
OS_EventTaskRdy                                   uCOS-II\Source\os_core.o
                                                  uCOS-II\Source\os_mbox.o
                                                  uCOS-II\Source\os_mutex.o
                                                  uCOS-II\Source\os_q.o
                                                  uCOS-II\Source\os_sem.o
OS_EventTaskRemove                                uCOS-II\Source\os_core.o
                                                  uCOS-II\Source\os_mbox.o
                                                  uCOS-II\Source\os_mutex.o
                                                  uCOS-II\Source\os_q.o
                                                  uCOS-II\Source\os_sem.o
                                                  uCOS-II\Source\os_task.o
OS_EventTaskRemoveMulti                           uCOS-II\Source\os_core.o
                                                  uCOS-II\Source\os_task.o
OS_EventTaskWait                                  uCOS-II\Source\os_core.o
                                                  uCOS-II\Source\os_mbox.o
                                                  uCOS-II\Source\os_mutex.o
                                                  uCOS-II\Source\os_q.o
                                                  uCOS-II\Source\os_sem.o
OS_EventTaskWaitMulti                             uCOS-II\Source\os_core.o
OS_EventWaitListInit                              uCOS-II\Source\os_core.o
                                                  uCOS-II\Source\os_mbox.o
                                                  uCOS-II\Source\os_mutex.o
                                                  uCOS-II\Source\os_q.o
                                                  uCOS-II\Source\os_sem.o
OS_FlagInit                                       uCOS-II\Source\os_flag.o
                                                  uCOS-II\Source\os_core.o
OS_FlagUnlink                                     uCOS-II\Source\os_flag.o
                                                  uCOS-II\Source\os_task.o
OS_MemClr                                         uCOS-II\Source\os_core.o
                                                  uCOS-II\Source\os_flag.o
                                                  uCOS-II\Source\os_mem.o
                                                  uCOS-II\Source\os_q.o
                                                  uCOS-II\Source\os_tmr.o
OS_MemCopy                                        uCOS-II\Source\os_core.o
                                                  uCOS-II\Source\os_task.o
OS_MemInit                                        uCOS-II\Source\os_mem.o
                                                  uCOS-II\Source\os_core.o
OS_QInit                                          uCOS-II\Source\os_q.o
                                                  uCOS-II\Source\os_core.o
OS_Sched                                          uCOS-II\Source\os_core.o
                                                  uCOS-II\Source\os_flag.o
                                                  uCOS-II\Source\os_mbox.o
                                                  uCOS-II\Source\os_mutex.o
                                                  uCOS-II\Source\os_q.o
                                                  uCOS-II\Source\os_sem.o
                                                  uCOS-II\Source\os_task.o
                                                  uCOS-II\Source\os_time.o
OS_StrLen                                         uCOS-II\Source\os_core.o
                                                  uCOS-II\Source\os_flag.o
                                                  uCOS-II\Source\os_mem.o
                                                  uCOS-II\Source\os_task.o
                                                  uCOS-II\Source\os_tmr.o
OS_TCBInit                                        uCOS-II\Source\os_core.o
                                                  uCOS-II\Source\os_task.o
OS_TaskIdle                                       uCOS-II\Source\os_core.o
OS_TaskReturn                                     uCOS-II\Source\os_task.o
                                                  uCOS-II\Ports\ARM-Cortex-M3\Generic\GNU\os_cpu_c.o
OS_TaskStat                                       uCOS-II\Source\os_core.o
OS_TaskStatStkChk                                 uCOS-II\Source\os_core.o
OS_TaskStkClr                                     uCOS-II\Source\os_task.o
PWR_BackupAccessCmd                               BSP\STM32F2xx\src\stm32f2xx_pwr.o
PWR_BackupRegulatorCmd                            BSP\STM32F2xx\src\stm32f2xx_pwr.o
PWR_ClearFlag                                     BSP\STM32F2xx\src\stm32f2xx_pwr.o
PWR_DeInit                                        BSP\STM32F2xx\src\stm32f2xx_pwr.o
PWR_EnterSTANDBYMode                              BSP\STM32F2xx\src\stm32f2xx_pwr.o
PWR_EnterSTOPMode                                 BSP\STM32F2xx\src\stm32f2xx_pwr.o
PWR_FlashPowerDownCmd                             BSP\STM32F2xx\src\stm32f2xx_pwr.o
PWR_GetFlagStatus                                 BSP\STM32F2xx\src\stm32f2xx_pwr.o
PWR_PVDCmd                                        BSP\STM32F2xx\src\stm32f2xx_pwr.o
PWR_PVDLevelConfig                                BSP\STM32F2xx\src\stm32f2xx_pwr.o
PWR_WakeUpPinCmd                                  BSP\STM32F2xx\src\stm32f2xx_pwr.o
RCC_AHB1PeriphClockCmd                            BSP\STM32F2xx\src\stm32f2xx_rcc.o
                                                  BSP\bsp.o
                                                  BSP\bsp_ioe.o
                                                  BSP\bsp_lcd.o
                                                  BSP\bsp_ser.o
RCC_AHB1PeriphClockLPModeCmd                      BSP\STM32F2xx\src\stm32f2xx_rcc.o
RCC_AHB1PeriphResetCmd                            BSP\STM32F2xx\src\stm32f2xx_rcc.o
                                                  BSP\STM32F2xx\src\stm32f2xx_gpio.o
RCC_AHB2PeriphClockCmd                            BSP\STM32F2xx\src\stm32f2xx_rcc.o
                                                  BSP\bsp.o
RCC_AHB2PeriphClockLPModeCmd                      BSP\STM32F2xx\src\stm32f2xx_rcc.o
RCC_AHB2PeriphResetCmd                            BSP\STM32F2xx\src\stm32f2xx_rcc.o
                                                  BSP\STM32F2xx\src\stm32f2xx_cryp.o
                                                  BSP\STM32F2xx\src\stm32f2xx_hash.o
                                                  BSP\STM32F2xx\src\stm32f2xx_rng.o
RCC_AHB3PeriphClockCmd                            BSP\STM32F2xx\src\stm32f2xx_rcc.o
                                                  BSP\bsp.o
                                                  BSP\bsp_lcd.o
RCC_AHB3PeriphClockLPModeCmd                      BSP\STM32F2xx\src\stm32f2xx_rcc.o
RCC_AHB3PeriphResetCmd                            BSP\STM32F2xx\src\stm32f2xx_rcc.o
RCC_APB1PeriphClockCmd                            BSP\STM32F2xx\src\stm32f2xx_rcc.o
                                                  BSP\bsp_ioe.o
                                                  BSP\bsp_ser.o
RCC_APB1PeriphClockLPModeCmd                      BSP\STM32F2xx\src\stm32f2xx_rcc.o
RCC_APB1PeriphResetCmd                            BSP\STM32F2xx\src\stm32f2xx_rcc.o
                                                  BSP\STM32F2xx\src\stm32f2xx_can.o
                                                  BSP\STM32F2xx\src\stm32f2xx_dac.o
                                                  BSP\STM32F2xx\src\stm32f2xx_i2c.o
                                                  BSP\STM32F2xx\src\stm32f2xx_pwr.o
                                                  BSP\STM32F2xx\src\stm32f2xx_spi.o
                                                  BSP\STM32F2xx\src\stm32f2xx_tim.o
                                                  BSP\STM32F2xx\src\stm32f2xx_usart.o
                                                  BSP\STM32F2xx\src\stm32f2xx_wwdg.o
                                                  BSP\bsp_ioe.o
RCC_APB2PeriphClockCmd                            BSP\STM32F2xx\src\stm32f2xx_rcc.o
                                                  BSP\bsp_ioe.o
RCC_APB2PeriphClockLPModeCmd                      BSP\STM32F2xx\src\stm32f2xx_rcc.o
RCC_APB2PeriphResetCmd                            BSP\STM32F2xx\src\stm32f2xx_rcc.o
                                                  BSP\STM32F2xx\src\stm32f2xx_adc.o
                                                  BSP\STM32F2xx\src\stm32f2xx_sdio.o
                                                  BSP\STM32F2xx\src\stm32f2xx_spi.o
                                                  BSP\STM32F2xx\src\stm32f2xx_syscfg.o
                                                  BSP\STM32F2xx\src\stm32f2xx_tim.o
                                                  BSP\STM32F2xx\src\stm32f2xx_usart.o
RCC_AdjustHSICalibrationValue                     BSP\STM32F2xx\src\stm32f2xx_rcc.o
RCC_BackupResetCmd                                BSP\STM32F2xx\src\stm32f2xx_rcc.o
RCC_ClearFlag                                     BSP\STM32F2xx\src\stm32f2xx_rcc.o
RCC_ClearITPendingBit                             BSP\STM32F2xx\src\stm32f2xx_rcc.o
RCC_ClockSecuritySystemCmd                        BSP\STM32F2xx\src\stm32f2xx_rcc.o
RCC_DeInit                                        BSP\STM32F2xx\src\stm32f2xx_rcc.o
RCC_GetClocksFreq                                 BSP\STM32F2xx\src\stm32f2xx_rcc.o
                                                  BSP\STM32F2xx\src\stm32f2xx_i2c.o
                                                  BSP\STM32F2xx\src\stm32f2xx_usart.o
                                                  BSP\bsp.o
RCC_GetFlagStatus                                 BSP\STM32F2xx\src\stm32f2xx_rcc.o
RCC_GetITStatus                                   BSP\STM32F2xx\src\stm32f2xx_rcc.o
RCC_GetSYSCLKSource                               BSP\STM32F2xx\src\stm32f2xx_rcc.o
RCC_HCLKConfig                                    BSP\STM32F2xx\src\stm32f2xx_rcc.o
RCC_HSEConfig                                     BSP\STM32F2xx\src\stm32f2xx_rcc.o
RCC_HSICmd                                        BSP\STM32F2xx\src\stm32f2xx_rcc.o
RCC_I2SCLKConfig                                  BSP\STM32F2xx\src\stm32f2xx_rcc.o
RCC_ITConfig                                      BSP\STM32F2xx\src\stm32f2xx_rcc.o
RCC_LSEConfig                                     BSP\STM32F2xx\src\stm32f2xx_rcc.o
RCC_LSICmd                                        BSP\STM32F2xx\src\stm32f2xx_rcc.o
RCC_MCO1Config                                    BSP\STM32F2xx\src\stm32f2xx_rcc.o
RCC_MCO2Config                                    BSP\STM32F2xx\src\stm32f2xx_rcc.o
RCC_PCLK1Config                                   BSP\STM32F2xx\src\stm32f2xx_rcc.o
RCC_PCLK2Config                                   BSP\STM32F2xx\src\stm32f2xx_rcc.o
RCC_PLLCmd                                        BSP\STM32F2xx\src\stm32f2xx_rcc.o
RCC_PLLConfig                                     BSP\STM32F2xx\src\stm32f2xx_rcc.o
RCC_PLLI2SCmd                                     BSP\STM32F2xx\src\stm32f2xx_rcc.o
RCC_PLLI2SConfig                                  BSP\STM32F2xx\src\stm32f2xx_rcc.o
RCC_RTCCLKCmd                                     BSP\STM32F2xx\src\stm32f2xx_rcc.o
RCC_RTCCLKConfig                                  BSP\STM32F2xx\src\stm32f2xx_rcc.o
RCC_SYSCLKConfig                                  BSP\STM32F2xx\src\stm32f2xx_rcc.o
RCC_WaitForHSEStartUp                             BSP\STM32F2xx\src\stm32f2xx_rcc.o
RNG_ClearFlag                                     BSP\STM32F2xx\src\stm32f2xx_rng.o
RNG_ClearITPendingBit                             BSP\STM32F2xx\src\stm32f2xx_rng.o
RNG_Cmd                                           BSP\STM32F2xx\src\stm32f2xx_rng.o
RNG_DeInit                                        BSP\STM32F2xx\src\stm32f2xx_rng.o
RNG_GetFlagStatus                                 BSP\STM32F2xx\src\stm32f2xx_rng.o
RNG_GetITStatus                                   BSP\STM32F2xx\src\stm32f2xx_rng.o
RNG_GetRandomNumber                               BSP\STM32F2xx\src\stm32f2xx_rng.o
RNG_ITConfig                                      BSP\STM32F2xx\src\stm32f2xx_rng.o
RTC_AlarmCmd                                      BSP\STM32F2xx\src\stm32f2xx_rtc.o
RTC_AlarmStructInit                               BSP\STM32F2xx\src\stm32f2xx_rtc.o
RTC_CalibOutputCmd                                BSP\STM32F2xx\src\stm32f2xx_rtc.o
RTC_ClearFlag                                     BSP\STM32F2xx\src\stm32f2xx_rtc.o
RTC_ClearITPendingBit                             BSP\STM32F2xx\src\stm32f2xx_rtc.o
RTC_CoarseCalibCmd                                BSP\STM32F2xx\src\stm32f2xx_rtc.o
RTC_CoarseCalibConfig                             BSP\STM32F2xx\src\stm32f2xx_rtc.o
RTC_DateStructInit                                BSP\STM32F2xx\src\stm32f2xx_rtc.o
RTC_DayLightSavingConfig                          BSP\STM32F2xx\src\stm32f2xx_rtc.o
RTC_DeInit                                        BSP\STM32F2xx\src\stm32f2xx_rtc.o
RTC_EnterInitMode                                 BSP\STM32F2xx\src\stm32f2xx_rtc.o
RTC_ExitInitMode                                  BSP\STM32F2xx\src\stm32f2xx_rtc.o
RTC_GetAlarm                                      BSP\STM32F2xx\src\stm32f2xx_rtc.o
RTC_GetDate                                       BSP\STM32F2xx\src\stm32f2xx_rtc.o
RTC_GetFlagStatus                                 BSP\STM32F2xx\src\stm32f2xx_rtc.o
RTC_GetITStatus                                   BSP\STM32F2xx\src\stm32f2xx_rtc.o
RTC_GetStoreOperation                             BSP\STM32F2xx\src\stm32f2xx_rtc.o
RTC_GetTime                                       BSP\STM32F2xx\src\stm32f2xx_rtc.o
RTC_GetTimeStamp                                  BSP\STM32F2xx\src\stm32f2xx_rtc.o
RTC_GetWakeUpCounter                              BSP\STM32F2xx\src\stm32f2xx_rtc.o
RTC_ITConfig                                      BSP\STM32F2xx\src\stm32f2xx_rtc.o
RTC_Init                                          BSP\STM32F2xx\src\stm32f2xx_rtc.o
RTC_OutputConfig                                  BSP\STM32F2xx\src\stm32f2xx_rtc.o
RTC_OutputTypeConfig                              BSP\STM32F2xx\src\stm32f2xx_rtc.o
RTC_ReadBackupRegister                            BSP\STM32F2xx\src\stm32f2xx_rtc.o
RTC_RefClockCmd                                   BSP\STM32F2xx\src\stm32f2xx_rtc.o
RTC_SetAlarm                                      BSP\STM32F2xx\src\stm32f2xx_rtc.o
RTC_SetDate                                       BSP\STM32F2xx\src\stm32f2xx_rtc.o
RTC_SetTime                                       BSP\STM32F2xx\src\stm32f2xx_rtc.o
RTC_SetWakeUpCounter                              BSP\STM32F2xx\src\stm32f2xx_rtc.o
RTC_StructInit                                    BSP\STM32F2xx\src\stm32f2xx_rtc.o
RTC_TamperCmd                                     BSP\STM32F2xx\src\stm32f2xx_rtc.o
RTC_TamperPinSelection                            BSP\STM32F2xx\src\stm32f2xx_rtc.o
RTC_TamperTriggerConfig                           BSP\STM32F2xx\src\stm32f2xx_rtc.o
RTC_TimeStampCmd                                  BSP\STM32F2xx\src\stm32f2xx_rtc.o
RTC_TimeStampPinSelection                         BSP\STM32F2xx\src\stm32f2xx_rtc.o
RTC_TimeStructInit                                BSP\STM32F2xx\src\stm32f2xx_rtc.o
RTC_WaitForSynchro                                BSP\STM32F2xx\src\stm32f2xx_rtc.o
RTC_WakeUpClockConfig                             BSP\STM32F2xx\src\stm32f2xx_rtc.o
RTC_WakeUpCmd                                     BSP\STM32F2xx\src\stm32f2xx_rtc.o
RTC_WriteBackupRegister                           BSP\STM32F2xx\src\stm32f2xx_rtc.o
RTC_WriteProtectionCmd                            BSP\STM32F2xx\src\stm32f2xx_rtc.o
Reset_Handler                                     BSP\cstartup.o
SDIO_CEATAITCmd                                   BSP\STM32F2xx\src\stm32f2xx_sdio.o
SDIO_ClearFlag                                    BSP\STM32F2xx\src\stm32f2xx_sdio.o
SDIO_ClearITPendingBit                            BSP\STM32F2xx\src\stm32f2xx_sdio.o
SDIO_ClockCmd                                     BSP\STM32F2xx\src\stm32f2xx_sdio.o
SDIO_CmdStructInit                                BSP\STM32F2xx\src\stm32f2xx_sdio.o
SDIO_CommandCompletionCmd                         BSP\STM32F2xx\src\stm32f2xx_sdio.o
SDIO_DMACmd                                       BSP\STM32F2xx\src\stm32f2xx_sdio.o
SDIO_DataConfig                                   BSP\STM32F2xx\src\stm32f2xx_sdio.o
SDIO_DataStructInit                               BSP\STM32F2xx\src\stm32f2xx_sdio.o
SDIO_DeInit                                       BSP\STM32F2xx\src\stm32f2xx_sdio.o
SDIO_GetCommandResponse                           BSP\STM32F2xx\src\stm32f2xx_sdio.o
SDIO_GetDataCounter                               BSP\STM32F2xx\src\stm32f2xx_sdio.o
SDIO_GetFIFOCount                                 BSP\STM32F2xx\src\stm32f2xx_sdio.o
SDIO_GetFlagStatus                                BSP\STM32F2xx\src\stm32f2xx_sdio.o
SDIO_GetITStatus                                  BSP\STM32F2xx\src\stm32f2xx_sdio.o
SDIO_GetPowerState                                BSP\STM32F2xx\src\stm32f2xx_sdio.o
SDIO_GetResponse                                  BSP\STM32F2xx\src\stm32f2xx_sdio.o
SDIO_ITConfig                                     BSP\STM32F2xx\src\stm32f2xx_sdio.o
SDIO_Init                                         BSP\STM32F2xx\src\stm32f2xx_sdio.o
SDIO_ReadData                                     BSP\STM32F2xx\src\stm32f2xx_sdio.o
SDIO_SendCEATACmd                                 BSP\STM32F2xx\src\stm32f2xx_sdio.o
SDIO_SendCommand                                  BSP\STM32F2xx\src\stm32f2xx_sdio.o
SDIO_SendSDIOSuspendCmd                           BSP\STM32F2xx\src\stm32f2xx_sdio.o
SDIO_SetPowerState                                BSP\STM32F2xx\src\stm32f2xx_sdio.o
SDIO_SetSDIOOperation                             BSP\STM32F2xx\src\stm32f2xx_sdio.o
SDIO_SetSDIOReadWaitMode                          BSP\STM32F2xx\src\stm32f2xx_sdio.o
SDIO_StartSDIOReadWait                            BSP\STM32F2xx\src\stm32f2xx_sdio.o
SDIO_StopSDIOReadWait                             BSP\STM32F2xx\src\stm32f2xx_sdio.o
SDIO_StructInit                                   BSP\STM32F2xx\src\stm32f2xx_sdio.o
SDIO_WriteData                                    BSP\STM32F2xx\src\stm32f2xx_sdio.o
SPI_BiDirectionalLineConfig                       BSP\STM32F2xx\src\stm32f2xx_spi.o
SPI_CalculateCRC                                  BSP\STM32F2xx\src\stm32f2xx_spi.o
SPI_Cmd                                           BSP\STM32F2xx\src\stm32f2xx_spi.o
SPI_DataSizeConfig                                BSP\STM32F2xx\src\stm32f2xx_spi.o
SPI_GetCRC                                        BSP\STM32F2xx\src\stm32f2xx_spi.o
SPI_GetCRCPolynomial                              BSP\STM32F2xx\src\stm32f2xx_spi.o
SPI_I2S_ClearFlag                                 BSP\STM32F2xx\src\stm32f2xx_spi.o
SPI_I2S_ClearITPendingBit                         BSP\STM32F2xx\src\stm32f2xx_spi.o
SPI_I2S_DMACmd                                    BSP\STM32F2xx\src\stm32f2xx_spi.o
SPI_I2S_DeInit                                    BSP\STM32F2xx\src\stm32f2xx_spi.o
SPI_I2S_GetFlagStatus                             BSP\STM32F2xx\src\stm32f2xx_spi.o
SPI_I2S_GetITStatus                               BSP\STM32F2xx\src\stm32f2xx_spi.o
SPI_I2S_ITConfig                                  BSP\STM32F2xx\src\stm32f2xx_spi.o
SPI_I2S_ReceiveData                               BSP\STM32F2xx\src\stm32f2xx_spi.o
SPI_I2S_SendData                                  BSP\STM32F2xx\src\stm32f2xx_spi.o
SPI_Init                                          BSP\STM32F2xx\src\stm32f2xx_spi.o
SPI_NSSInternalSoftwareConfig                     BSP\STM32F2xx\src\stm32f2xx_spi.o
SPI_SSOutputCmd                                   BSP\STM32F2xx\src\stm32f2xx_spi.o
SPI_StructInit                                    BSP\STM32F2xx\src\stm32f2xx_spi.o
SPI_TIModeCmd                                     BSP\STM32F2xx\src\stm32f2xx_spi.o
SPI_TransmitCRC                                   BSP\STM32F2xx\src\stm32f2xx_spi.o
SYSCFG_CompensationCellCmd                        BSP\STM32F2xx\src\stm32f2xx_syscfg.o
SYSCFG_DeInit                                     BSP\STM32F2xx\src\stm32f2xx_syscfg.o
SYSCFG_ETH_MediaInterfaceConfig                   BSP\STM32F2xx\src\stm32f2xx_syscfg.o
SYSCFG_EXTILineConfig                             BSP\STM32F2xx\src\stm32f2xx_syscfg.o
                                                  BSP\bsp_ioe.o
SYSCFG_GetCompensationCellStatus                  BSP\STM32F2xx\src\stm32f2xx_syscfg.o
SYSCFG_MemoryRemapConfig                          BSP\STM32F2xx\src\stm32f2xx_syscfg.o
Str_Cat                                           uC-LIB\lib_str.o
Str_Cat_N                                         uC-LIB\lib_str.o
Str_Char                                          uC-LIB\lib_str.o
Str_Char_Last                                     uC-LIB\lib_str.o
Str_Char_Last_N                                   uC-LIB\lib_str.o
Str_Char_N                                        uC-LIB\lib_str.o
Str_Char_Replace                                  uC-LIB\lib_str.o
Str_Char_Replace_N                                uC-LIB\lib_str.o
Str_Cmp                                           uC-LIB\lib_str.o
Str_CmpIgnoreCase                                 uC-LIB\lib_str.o
Str_CmpIgnoreCase_N                               uC-LIB\lib_str.o
Str_Cmp_N                                         uC-LIB\lib_str.o
Str_Copy                                          uC-LIB\lib_str.o
Str_Copy_N                                        uC-LIB\lib_str.o
                                                  uC-CPU\cpu_core.o
Str_FmtNbr_Int32S                                 uC-LIB\lib_str.o
Str_FmtNbr_Int32U                                 uC-LIB\lib_str.o
Str_Len                                           uC-LIB\lib_str.o
Str_Len_N                                         uC-LIB\lib_str.o
                                                  uC-CPU\cpu_core.o
Str_ParseNbr_Int32S                               uC-LIB\lib_str.o
Str_ParseNbr_Int32U                               uC-LIB\lib_str.o
Str_Str                                           uC-LIB\lib_str.o
Str_Str_N                                         uC-LIB\lib_str.o
SysTick_CLKSourceConfig                           BSP\STM32F2xx\src\misc.o
SystemCoreClock                                   BSP\CMSIS\Device_Support\system_stm32f2xx.o
SystemCoreClockUpdate                             BSP\CMSIS\Device_Support\system_stm32f2xx.o
SystemInit                                        BSP\CMSIS\Device_Support\system_stm32f2xx.o
                                                  BSP\cstartup.o
TIM_ARRPreloadConfig                              BSP\STM32F2xx\src\stm32f2xx_tim.o
TIM_BDTRConfig                                    BSP\STM32F2xx\src\stm32f2xx_tim.o
TIM_BDTRStructInit                                BSP\STM32F2xx\src\stm32f2xx_tim.o
TIM_CCPreloadControl                              BSP\STM32F2xx\src\stm32f2xx_tim.o
TIM_CCxCmd                                        BSP\STM32F2xx\src\stm32f2xx_tim.o
TIM_CCxNCmd                                       BSP\STM32F2xx\src\stm32f2xx_tim.o
TIM_ClearFlag                                     BSP\STM32F2xx\src\stm32f2xx_tim.o
TIM_ClearITPendingBit                             BSP\STM32F2xx\src\stm32f2xx_tim.o
TIM_ClearOC1Ref                                   BSP\STM32F2xx\src\stm32f2xx_tim.o
TIM_ClearOC2Ref                                   BSP\STM32F2xx\src\stm32f2xx_tim.o
TIM_ClearOC3Ref                                   BSP\STM32F2xx\src\stm32f2xx_tim.o
TIM_ClearOC4Ref                                   BSP\STM32F2xx\src\stm32f2xx_tim.o
TIM_Cmd                                           BSP\STM32F2xx\src\stm32f2xx_tim.o
TIM_CounterModeConfig                             BSP\STM32F2xx\src\stm32f2xx_tim.o
TIM_CtrlPWMOutputs                                BSP\STM32F2xx\src\stm32f2xx_tim.o
TIM_DMACmd                                        BSP\STM32F2xx\src\stm32f2xx_tim.o
TIM_DMAConfig                                     BSP\STM32F2xx\src\stm32f2xx_tim.o
TIM_DeInit                                        BSP\STM32F2xx\src\stm32f2xx_tim.o
TIM_ETRClockMode1Config                           BSP\STM32F2xx\src\stm32f2xx_tim.o
TIM_ETRClockMode2Config                           BSP\STM32F2xx\src\stm32f2xx_tim.o
TIM_ETRConfig                                     BSP\STM32F2xx\src\stm32f2xx_tim.o
TIM_EncoderInterfaceConfig                        BSP\STM32F2xx\src\stm32f2xx_tim.o
TIM_ForcedOC1Config                               BSP\STM32F2xx\src\stm32f2xx_tim.o
TIM_ForcedOC2Config                               BSP\STM32F2xx\src\stm32f2xx_tim.o
TIM_ForcedOC3Config                               BSP\STM32F2xx\src\stm32f2xx_tim.o
TIM_ForcedOC4Config                               BSP\STM32F2xx\src\stm32f2xx_tim.o
TIM_GenerateEvent                                 BSP\STM32F2xx\src\stm32f2xx_tim.o
TIM_GetCapture1                                   BSP\STM32F2xx\src\stm32f2xx_tim.o
TIM_GetCapture2                                   BSP\STM32F2xx\src\stm32f2xx_tim.o
TIM_GetCapture3                                   BSP\STM32F2xx\src\stm32f2xx_tim.o
TIM_GetCapture4                                   BSP\STM32F2xx\src\stm32f2xx_tim.o
TIM_GetCounter                                    BSP\STM32F2xx\src\stm32f2xx_tim.o
TIM_GetFlagStatus                                 BSP\STM32F2xx\src\stm32f2xx_tim.o
TIM_GetITStatus                                   BSP\STM32F2xx\src\stm32f2xx_tim.o
TIM_GetPrescaler                                  BSP\STM32F2xx\src\stm32f2xx_tim.o
TIM_ICInit                                        BSP\STM32F2xx\src\stm32f2xx_tim.o
TIM_ICStructInit                                  BSP\STM32F2xx\src\stm32f2xx_tim.o
TIM_ITConfig                                      BSP\STM32F2xx\src\stm32f2xx_tim.o
TIM_ITRxExternalClockConfig                       BSP\STM32F2xx\src\stm32f2xx_tim.o
TIM_InternalClockConfig                           BSP\STM32F2xx\src\stm32f2xx_tim.o
TIM_OC1FastConfig                                 BSP\STM32F2xx\src\stm32f2xx_tim.o
TIM_OC1Init                                       BSP\STM32F2xx\src\stm32f2xx_tim.o
TIM_OC1NPolarityConfig                            BSP\STM32F2xx\src\stm32f2xx_tim.o
TIM_OC1PolarityConfig                             BSP\STM32F2xx\src\stm32f2xx_tim.o
TIM_OC1PreloadConfig                              BSP\STM32F2xx\src\stm32f2xx_tim.o
TIM_OC2FastConfig                                 BSP\STM32F2xx\src\stm32f2xx_tim.o
TIM_OC2Init                                       BSP\STM32F2xx\src\stm32f2xx_tim.o
TIM_OC2NPolarityConfig                            BSP\STM32F2xx\src\stm32f2xx_tim.o
TIM_OC2PolarityConfig                             BSP\STM32F2xx\src\stm32f2xx_tim.o
TIM_OC2PreloadConfig                              BSP\STM32F2xx\src\stm32f2xx_tim.o
TIM_OC3FastConfig                                 BSP\STM32F2xx\src\stm32f2xx_tim.o
TIM_OC3Init                                       BSP\STM32F2xx\src\stm32f2xx_tim.o
TIM_OC3NPolarityConfig                            BSP\STM32F2xx\src\stm32f2xx_tim.o
TIM_OC3PolarityConfig                             BSP\STM32F2xx\src\stm32f2xx_tim.o
TIM_OC3PreloadConfig                              BSP\STM32F2xx\src\stm32f2xx_tim.o
TIM_OC4FastConfig                                 BSP\STM32F2xx\src\stm32f2xx_tim.o
TIM_OC4Init                                       BSP\STM32F2xx\src\stm32f2xx_tim.o
TIM_OC4PolarityConfig                             BSP\STM32F2xx\src\stm32f2xx_tim.o
TIM_OC4PreloadConfig                              BSP\STM32F2xx\src\stm32f2xx_tim.o
TIM_OCStructInit                                  BSP\STM32F2xx\src\stm32f2xx_tim.o
TIM_PWMIConfig                                    BSP\STM32F2xx\src\stm32f2xx_tim.o
TIM_PrescalerConfig                               BSP\STM32F2xx\src\stm32f2xx_tim.o
TIM_RemapConfig                                   BSP\STM32F2xx\src\stm32f2xx_tim.o
TIM_SelectCCDMA                                   BSP\STM32F2xx\src\stm32f2xx_tim.o
TIM_SelectCOM                                     BSP\STM32F2xx\src\stm32f2xx_tim.o
TIM_SelectHallSensor                              BSP\STM32F2xx\src\stm32f2xx_tim.o
TIM_SelectInputTrigger                            BSP\STM32F2xx\src\stm32f2xx_tim.o
TIM_SelectMasterSlaveMode                         BSP\STM32F2xx\src\stm32f2xx_tim.o
TIM_SelectOCxM                                    BSP\STM32F2xx\src\stm32f2xx_tim.o
TIM_SelectOnePulseMode                            BSP\STM32F2xx\src\stm32f2xx_tim.o
TIM_SelectOutputTrigger                           BSP\STM32F2xx\src\stm32f2xx_tim.o
TIM_SelectSlaveMode                               BSP\STM32F2xx\src\stm32f2xx_tim.o
TIM_SetAutoreload                                 BSP\STM32F2xx\src\stm32f2xx_tim.o
TIM_SetClockDivision                              BSP\STM32F2xx\src\stm32f2xx_tim.o
TIM_SetCompare1                                   BSP\STM32F2xx\src\stm32f2xx_tim.o
TIM_SetCompare2                                   BSP\STM32F2xx\src\stm32f2xx_tim.o
TIM_SetCompare3                                   BSP\STM32F2xx\src\stm32f2xx_tim.o
TIM_SetCompare4                                   BSP\STM32F2xx\src\stm32f2xx_tim.o
TIM_SetCounter                                    BSP\STM32F2xx\src\stm32f2xx_tim.o
TIM_SetIC1Prescaler                               BSP\STM32F2xx\src\stm32f2xx_tim.o
TIM_SetIC2Prescaler                               BSP\STM32F2xx\src\stm32f2xx_tim.o
TIM_SetIC3Prescaler                               BSP\STM32F2xx\src\stm32f2xx_tim.o
TIM_SetIC4Prescaler                               BSP\STM32F2xx\src\stm32f2xx_tim.o
TIM_TIxExternalClockConfig                        BSP\STM32F2xx\src\stm32f2xx_tim.o
TIM_TimeBaseInit                                  BSP\STM32F2xx\src\stm32f2xx_tim.o
TIM_TimeBaseStructInit                            BSP\STM32F2xx\src\stm32f2xx_tim.o
TIM_UpdateDisableConfig                           BSP\STM32F2xx\src\stm32f2xx_tim.o
TIM_UpdateRequestConfig                           BSP\STM32F2xx\src\stm32f2xx_tim.o
TS_State                                          BSP\bsp_ioe.o
USART_ClearFlag                                   BSP\STM32F2xx\src\stm32f2xx_usart.o
USART_ClearITPendingBit                           BSP\STM32F2xx\src\stm32f2xx_usart.o
                                                  BSP\bsp_ser.o
USART_ClockInit                                   BSP\STM32F2xx\src\stm32f2xx_usart.o
                                                  BSP\bsp_ser.o
USART_ClockStructInit                             BSP\STM32F2xx\src\stm32f2xx_usart.o
USART_Cmd                                         BSP\STM32F2xx\src\stm32f2xx_usart.o
                                                  BSP\bsp_ser.o
USART_DMACmd                                      BSP\STM32F2xx\src\stm32f2xx_usart.o
USART_DeInit                                      BSP\STM32F2xx\src\stm32f2xx_usart.o
USART_GetFlagStatus                               BSP\STM32F2xx\src\stm32f2xx_usart.o
USART_GetITStatus                                 BSP\STM32F2xx\src\stm32f2xx_usart.o
USART_HalfDuplexCmd                               BSP\STM32F2xx\src\stm32f2xx_usart.o
USART_ITConfig                                    BSP\STM32F2xx\src\stm32f2xx_usart.o
                                                  BSP\bsp_ser.o
USART_Init                                        BSP\STM32F2xx\src\stm32f2xx_usart.o
                                                  BSP\bsp_ser.o
USART_IrDACmd                                     BSP\STM32F2xx\src\stm32f2xx_usart.o
USART_IrDAConfig                                  BSP\STM32F2xx\src\stm32f2xx_usart.o
USART_LINBreakDetectLengthConfig                  BSP\STM32F2xx\src\stm32f2xx_usart.o
USART_LINCmd                                      BSP\STM32F2xx\src\stm32f2xx_usart.o
USART_OneBitMethodCmd                             BSP\STM32F2xx\src\stm32f2xx_usart.o
USART_OverSampling8Cmd                            BSP\STM32F2xx\src\stm32f2xx_usart.o
USART_ReceiveData                                 BSP\STM32F2xx\src\stm32f2xx_usart.o
                                                  BSP\bsp_ser.o
USART_ReceiverWakeUpCmd                           BSP\STM32F2xx\src\stm32f2xx_usart.o
USART_SendBreak                                   BSP\STM32F2xx\src\stm32f2xx_usart.o
USART_SendData                                    BSP\STM32F2xx\src\stm32f2xx_usart.o
                                                  BSP\bsp_ser.o
USART_SetAddress                                  BSP\STM32F2xx\src\stm32f2xx_usart.o
USART_SetGuardTime                                BSP\STM32F2xx\src\stm32f2xx_usart.o
USART_SetPrescaler                                BSP\STM32F2xx\src\stm32f2xx_usart.o
USART_SmartCardCmd                                BSP\STM32F2xx\src\stm32f2xx_usart.o
USART_SmartCardNACKCmd                            BSP\STM32F2xx\src\stm32f2xx_usart.o
USART_StructInit                                  BSP\STM32F2xx\src\stm32f2xx_usart.o
USART_WakeUpConfig                                BSP\STM32F2xx\src\stm32f2xx_usart.o
WWDG_ClearFlag                                    BSP\STM32F2xx\src\stm32f2xx_wwdg.o
WWDG_DeInit                                       BSP\STM32F2xx\src\stm32f2xx_wwdg.o
WWDG_Enable                                       BSP\STM32F2xx\src\stm32f2xx_wwdg.o
WWDG_EnableIT                                     BSP\STM32F2xx\src\stm32f2xx_wwdg.o
WWDG_GetFlagStatus                                BSP\STM32F2xx\src\stm32f2xx_wwdg.o
WWDG_SetCounter                                   BSP\STM32F2xx\src\stm32f2xx_wwdg.o
WWDG_SetPrescaler                                 BSP\STM32F2xx\src\stm32f2xx_wwdg.o
WWDG_SetWindowValue                               BSP\STM32F2xx\src\stm32f2xx_wwdg.o
_Balloc                                           c:/program files (x86)/atollic/truestudio for arm pro 3.2.0/armtools/bin/../lib/gcc/arm-atollic-eabi/4.6.2/../../../../arm-atollic-eabi/lib/thumb/softfp/armv7e-m/fpv4-sp-d16\libc.a(lib_a-mprec.o)
                                                  c:/program files (x86)/atollic/truestudio for arm pro 3.2.0/armtools/bin/../lib/gcc/arm-atollic-eabi/4.6.2/../../../../arm-atollic-eabi/lib/thumb/softfp/armv7e-m/fpv4-sp-d16\libc.a(lib_a-dtoa.o)
_Bfree                                            c:/program files (x86)/atollic/truestudio for arm pro 3.2.0/armtools/bin/../lib/gcc/arm-atollic-eabi/4.6.2/../../../../arm-atollic-eabi/lib/thumb/softfp/armv7e-m/fpv4-sp-d16\libc.a(lib_a-mprec.o)
                                                  c:/program files (x86)/atollic/truestudio for arm pro 3.2.0/armtools/bin/../lib/gcc/arm-atollic-eabi/4.6.2/../../../../arm-atollic-eabi/lib/thumb/softfp/armv7e-m/fpv4-sp-d16\libc.a(lib_a-dtoa.o)
_Jv_RegisterClasses                               c:/program files (x86)/atollic/truestudio for arm pro 3.2.0/armtools/bin/../lib/gcc/arm-atollic-eabi/4.6.2/thumb/softfp/armv7e-m/fpv4-sp-d16/crtbegin.o
_PathLocale                                       c:/program files (x86)/atollic/truestudio for arm pro 3.2.0/armtools/bin/../lib/gcc/arm-atollic-eabi/4.6.2/../../../../arm-atollic-eabi/lib/thumb/softfp/armv7e-m/fpv4-sp-d16\libc.a(lib_a-locale.o)
_Unwind_Backtrace                                 c:/program files (x86)/atollic/truestudio for arm pro 3.2.0/armtools/bin/../lib/gcc/arm-atollic-eabi/4.6.2/thumb/softfp/armv7e-m/fpv4-sp-d16\libgcc.a(libunwind.o)
_Unwind_Complete                                  c:/program files (x86)/atollic/truestudio for arm pro 3.2.0/armtools/bin/../lib/gcc/arm-atollic-eabi/4.6.2/thumb/softfp/armv7e-m/fpv4-sp-d16\libgcc.a(unwind-arm.o)
_Unwind_DeleteException                           c:/program files (x86)/atollic/truestudio for arm pro 3.2.0/armtools/bin/../lib/gcc/arm-atollic-eabi/4.6.2/thumb/softfp/armv7e-m/fpv4-sp-d16\libgcc.a(unwind-arm.o)
_Unwind_ForcedUnwind                              c:/program files (x86)/atollic/truestudio for arm pro 3.2.0/armtools/bin/../lib/gcc/arm-atollic-eabi/4.6.2/thumb/softfp/armv7e-m/fpv4-sp-d16\libgcc.a(libunwind.o)
_Unwind_GetCFA                                    c:/program files (x86)/atollic/truestudio for arm pro 3.2.0/armtools/bin/../lib/gcc/arm-atollic-eabi/4.6.2/thumb/softfp/armv7e-m/fpv4-sp-d16\libgcc.a(unwind-arm.o)
_Unwind_GetDataRelBase                            c:/program files (x86)/atollic/truestudio for arm pro 3.2.0/armtools/bin/../lib/gcc/arm-atollic-eabi/4.6.2/thumb/softfp/armv7e-m/fpv4-sp-d16\libgcc.a(pr-support.o)
_Unwind_GetLanguageSpecificData                   c:/program files (x86)/atollic/truestudio for arm pro 3.2.0/armtools/bin/../lib/gcc/arm-atollic-eabi/4.6.2/thumb/softfp/armv7e-m/fpv4-sp-d16\libgcc.a(pr-support.o)
_Unwind_GetRegionStart                            c:/program files (x86)/atollic/truestudio for arm pro 3.2.0/armtools/bin/../lib/gcc/arm-atollic-eabi/4.6.2/thumb/softfp/armv7e-m/fpv4-sp-d16\libgcc.a(pr-support.o)
_Unwind_GetTextRelBase                            c:/program files (x86)/atollic/truestudio for arm pro 3.2.0/armtools/bin/../lib/gcc/arm-atollic-eabi/4.6.2/thumb/softfp/armv7e-m/fpv4-sp-d16\libgcc.a(pr-support.o)
_Unwind_RaiseException                            c:/program files (x86)/atollic/truestudio for arm pro 3.2.0/armtools/bin/../lib/gcc/arm-atollic-eabi/4.6.2/thumb/softfp/armv7e-m/fpv4-sp-d16\libgcc.a(libunwind.o)
_Unwind_Resume                                    c:/program files (x86)/atollic/truestudio for arm pro 3.2.0/armtools/bin/../lib/gcc/arm-atollic-eabi/4.6.2/thumb/softfp/armv7e-m/fpv4-sp-d16\libgcc.a(libunwind.o)
_Unwind_Resume_or_Rethrow                         c:/program files (x86)/atollic/truestudio for arm pro 3.2.0/armtools/bin/../lib/gcc/arm-atollic-eabi/4.6.2/thumb/softfp/armv7e-m/fpv4-sp-d16\libgcc.a(libunwind.o)
_Unwind_VRS_Get                                   c:/program files (x86)/atollic/truestudio for arm pro 3.2.0/armtools/bin/../lib/gcc/arm-atollic-eabi/4.6.2/thumb/softfp/armv7e-m/fpv4-sp-d16\libgcc.a(unwind-arm.o)
                                                  c:/program files (x86)/atollic/truestudio for arm pro 3.2.0/armtools/bin/../lib/gcc/arm-atollic-eabi/4.6.2/thumb/softfp/armv7e-m/fpv4-sp-d16\libgcc.a(pr-support.o)
_Unwind_VRS_Pop                                   c:/program files (x86)/atollic/truestudio for arm pro 3.2.0/armtools/bin/../lib/gcc/arm-atollic-eabi/4.6.2/thumb/softfp/armv7e-m/fpv4-sp-d16\libgcc.a(unwind-arm.o)
                                                  c:/program files (x86)/atollic/truestudio for arm pro 3.2.0/armtools/bin/../lib/gcc/arm-atollic-eabi/4.6.2/thumb/softfp/armv7e-m/fpv4-sp-d16\libgcc.a(pr-support.o)
_Unwind_VRS_Set                                   c:/program files (x86)/atollic/truestudio for arm pro 3.2.0/armtools/bin/../lib/gcc/arm-atollic-eabi/4.6.2/thumb/softfp/armv7e-m/fpv4-sp-d16\libgcc.a(unwind-arm.o)
                                                  c:/program files (x86)/atollic/truestudio for arm pro 3.2.0/armtools/bin/../lib/gcc/arm-atollic-eabi/4.6.2/thumb/softfp/armv7e-m/fpv4-sp-d16\libgcc.a(pr-support.o)
___Unwind_Backtrace                               c:/program files (x86)/atollic/truestudio for arm pro 3.2.0/armtools/bin/../lib/gcc/arm-atollic-eabi/4.6.2/thumb/softfp/armv7e-m/fpv4-sp-d16\libgcc.a(libunwind.o)
___Unwind_ForcedUnwind                            c:/program files (x86)/atollic/truestudio for arm pro 3.2.0/armtools/bin/../lib/gcc/arm-atollic-eabi/4.6.2/thumb/softfp/armv7e-m/fpv4-sp-d16\libgcc.a(libunwind.o)
___Unwind_RaiseException                          c:/program files (x86)/atollic/truestudio for arm pro 3.2.0/armtools/bin/../lib/gcc/arm-atollic-eabi/4.6.2/thumb/softfp/armv7e-m/fpv4-sp-d16\libgcc.a(libunwind.o)
___Unwind_Resume                                  c:/program files (x86)/atollic/truestudio for arm pro 3.2.0/armtools/bin/../lib/gcc/arm-atollic-eabi/4.6.2/thumb/softfp/armv7e-m/fpv4-sp-d16\libgcc.a(libunwind.o)
___Unwind_Resume_or_Rethrow                       c:/program files (x86)/atollic/truestudio for arm pro 3.2.0/armtools/bin/../lib/gcc/arm-atollic-eabi/4.6.2/thumb/softfp/armv7e-m/fpv4-sp-d16\libgcc.a(libunwind.o)
__adddf3                                          c:/program files (x86)/atollic/truestudio for arm pro 3.2.0/armtools/bin/../lib/gcc/arm-atollic-eabi/4.6.2/thumb/softfp/armv7e-m/fpv4-sp-d16\libgcc.a(_arm_addsubdf3.o)
__aeabi_cdcmpeq                                   c:/program files (x86)/atollic/truestudio for arm pro 3.2.0/armtools/bin/../lib/gcc/arm-atollic-eabi/4.6.2/thumb/softfp/armv7e-m/fpv4-sp-d16\libgcc.a(_arm_cmpdf2.o)
__aeabi_cdcmple                                   c:/program files (x86)/atollic/truestudio for arm pro 3.2.0/armtools/bin/../lib/gcc/arm-atollic-eabi/4.6.2/thumb/softfp/armv7e-m/fpv4-sp-d16\libgcc.a(_arm_cmpdf2.o)
__aeabi_cdrcmple                                  c:/program files (x86)/atollic/truestudio for arm pro 3.2.0/armtools/bin/../lib/gcc/arm-atollic-eabi/4.6.2/thumb/softfp/armv7e-m/fpv4-sp-d16\libgcc.a(_arm_cmpdf2.o)
__aeabi_d2iz                                      c:/program files (x86)/atollic/truestudio for arm pro 3.2.0/armtools/bin/../lib/gcc/arm-atollic-eabi/4.6.2/thumb/softfp/armv7e-m/fpv4-sp-d16\libgcc.a(_arm_fixdfsi.o)
                                                  c:/program files (x86)/atollic/truestudio for arm pro 3.2.0/armtools/bin/../lib/gcc/arm-atollic-eabi/4.6.2/../../../../arm-atollic-eabi/lib/thumb/softfp/armv7e-m/fpv4-sp-d16\libc.a(lib_a-dtoa.o)
__aeabi_dadd                                      c:/program files (x86)/atollic/truestudio for arm pro 3.2.0/armtools/bin/../lib/gcc/arm-atollic-eabi/4.6.2/thumb/softfp/armv7e-m/fpv4-sp-d16\libgcc.a(_arm_addsubdf3.o)
                                                  c:/program files (x86)/atollic/truestudio for arm pro 3.2.0/armtools/bin/../lib/gcc/arm-atollic-eabi/4.6.2/../../../../arm-atollic-eabi/lib/thumb/softfp/armv7e-m/fpv4-sp-d16\libc.a(lib_a-dtoa.o)
__aeabi_dcmpeq                                    c:/program files (x86)/atollic/truestudio for arm pro 3.2.0/armtools/bin/../lib/gcc/arm-atollic-eabi/4.6.2/thumb/softfp/armv7e-m/fpv4-sp-d16\libgcc.a(_arm_cmpdf2.o)
                                                  c:/program files (x86)/atollic/truestudio for arm pro 3.2.0/armtools/bin/../lib/gcc/arm-atollic-eabi/4.6.2/../../../../arm-atollic-eabi/lib/thumb/softfp/armv7e-m/fpv4-sp-d16\libc.a(lib_a-dtoa.o)
                                                  c:/program files (x86)/atollic/truestudio for arm pro 3.2.0/armtools/bin/../lib/gcc/arm-atollic-eabi/4.6.2/../../../../arm-atollic-eabi/lib/thumb/softfp/armv7e-m/fpv4-sp-d16\libc.a(lib_a-svfprintf.o)
__aeabi_dcmpge                                    c:/program files (x86)/atollic/truestudio for arm pro 3.2.0/armtools/bin/../lib/gcc/arm-atollic-eabi/4.6.2/thumb/softfp/armv7e-m/fpv4-sp-d16\libgcc.a(_arm_cmpdf2.o)
                                                  c:/program files (x86)/atollic/truestudio for arm pro 3.2.0/armtools/bin/../lib/gcc/arm-atollic-eabi/4.6.2/../../../../arm-atollic-eabi/lib/thumb/softfp/armv7e-m/fpv4-sp-d16\libc.a(lib_a-dtoa.o)
__aeabi_dcmpgt                                    c:/program files (x86)/atollic/truestudio for arm pro 3.2.0/armtools/bin/../lib/gcc/arm-atollic-eabi/4.6.2/thumb/softfp/armv7e-m/fpv4-sp-d16\libgcc.a(_arm_cmpdf2.o)
                                                  c:/program files (x86)/atollic/truestudio for arm pro 3.2.0/armtools/bin/../lib/gcc/arm-atollic-eabi/4.6.2/../../../../arm-atollic-eabi/lib/thumb/softfp/armv7e-m/fpv4-sp-d16\libc.a(lib_a-dtoa.o)
__aeabi_dcmple                                    c:/program files (x86)/atollic/truestudio for arm pro 3.2.0/armtools/bin/../lib/gcc/arm-atollic-eabi/4.6.2/thumb/softfp/armv7e-m/fpv4-sp-d16\libgcc.a(_arm_cmpdf2.o)
__aeabi_dcmplt                                    c:/program files (x86)/atollic/truestudio for arm pro 3.2.0/armtools/bin/../lib/gcc/arm-atollic-eabi/4.6.2/thumb/softfp/armv7e-m/fpv4-sp-d16\libgcc.a(_arm_cmpdf2.o)
                                                  c:/program files (x86)/atollic/truestudio for arm pro 3.2.0/armtools/bin/../lib/gcc/arm-atollic-eabi/4.6.2/../../../../arm-atollic-eabi/lib/thumb/softfp/armv7e-m/fpv4-sp-d16\libc.a(lib_a-dtoa.o)
                                                  c:/program files (x86)/atollic/truestudio for arm pro 3.2.0/armtools/bin/../lib/gcc/arm-atollic-eabi/4.6.2/../../../../arm-atollic-eabi/lib/thumb/softfp/armv7e-m/fpv4-sp-d16\libc.a(lib_a-svfprintf.o)
__aeabi_ddiv                                      c:/program files (x86)/atollic/truestudio for arm pro 3.2.0/armtools/bin/../lib/gcc/arm-atollic-eabi/4.6.2/thumb/softfp/armv7e-m/fpv4-sp-d16\libgcc.a(_arm_muldivdf3.o)
                                                  c:/program files (x86)/atollic/truestudio for arm pro 3.2.0/armtools/bin/../lib/gcc/arm-atollic-eabi/4.6.2/../../../../arm-atollic-eabi/lib/thumb/softfp/armv7e-m/fpv4-sp-d16\libc.a(lib_a-mprec.o)
                                                  c:/program files (x86)/atollic/truestudio for arm pro 3.2.0/armtools/bin/../lib/gcc/arm-atollic-eabi/4.6.2/../../../../arm-atollic-eabi/lib/thumb/softfp/armv7e-m/fpv4-sp-d16\libc.a(lib_a-dtoa.o)
__aeabi_dmul                                      c:/program files (x86)/atollic/truestudio for arm pro 3.2.0/armtools/bin/../lib/gcc/arm-atollic-eabi/4.6.2/thumb/softfp/armv7e-m/fpv4-sp-d16\libgcc.a(_arm_muldivdf3.o)
                                                  c:/program files (x86)/atollic/truestudio for arm pro 3.2.0/armtools/bin/../lib/gcc/arm-atollic-eabi/4.6.2/../../../../arm-atollic-eabi/lib/thumb/softfp/armv7e-m/fpv4-sp-d16\libc.a(lib_a-mprec.o)
                                                  c:/program files (x86)/atollic/truestudio for arm pro 3.2.0/armtools/bin/../lib/gcc/arm-atollic-eabi/4.6.2/../../../../arm-atollic-eabi/lib/thumb/softfp/armv7e-m/fpv4-sp-d16\libc.a(lib_a-dtoa.o)
__aeabi_drsub                                     c:/program files (x86)/atollic/truestudio for arm pro 3.2.0/armtools/bin/../lib/gcc/arm-atollic-eabi/4.6.2/thumb/softfp/armv7e-m/fpv4-sp-d16\libgcc.a(_arm_addsubdf3.o)
__aeabi_dsub                                      c:/program files (x86)/atollic/truestudio for arm pro 3.2.0/armtools/bin/../lib/gcc/arm-atollic-eabi/4.6.2/thumb/softfp/armv7e-m/fpv4-sp-d16\libgcc.a(_arm_addsubdf3.o)
                                                  c:/program files (x86)/atollic/truestudio for arm pro 3.2.0/armtools/bin/../lib/gcc/arm-atollic-eabi/4.6.2/../../../../arm-atollic-eabi/lib/thumb/softfp/armv7e-m/fpv4-sp-d16\libc.a(lib_a-dtoa.o)
__aeabi_f2d                                       c:/program files (x86)/atollic/truestudio for arm pro 3.2.0/armtools/bin/../lib/gcc/arm-atollic-eabi/4.6.2/thumb/softfp/armv7e-m/fpv4-sp-d16\libgcc.a(_arm_addsubdf3.o)
__aeabi_i2d                                       c:/program files (x86)/atollic/truestudio for arm pro 3.2.0/armtools/bin/../lib/gcc/arm-atollic-eabi/4.6.2/thumb/softfp/armv7e-m/fpv4-sp-d16\libgcc.a(_arm_addsubdf3.o)
                                                  c:/program files (x86)/atollic/truestudio for arm pro 3.2.0/armtools/bin/../lib/gcc/arm-atollic-eabi/4.6.2/../../../../arm-atollic-eabi/lib/thumb/softfp/armv7e-m/fpv4-sp-d16\libc.a(lib_a-dtoa.o)
__aeabi_idiv0                                     c:/program files (x86)/atollic/truestudio for arm pro 3.2.0/armtools/bin/../lib/gcc/arm-atollic-eabi/4.6.2/thumb/softfp/armv7e-m/fpv4-sp-d16\libgcc.a(_dvmd_tls.o)
__aeabi_l2d                                       c:/program files (x86)/atollic/truestudio for arm pro 3.2.0/armtools/bin/../lib/gcc/arm-atollic-eabi/4.6.2/thumb/softfp/armv7e-m/fpv4-sp-d16\libgcc.a(_arm_addsubdf3.o)
__aeabi_ldiv0                                     c:/program files (x86)/atollic/truestudio for arm pro 3.2.0/armtools/bin/../lib/gcc/arm-atollic-eabi/4.6.2/thumb/softfp/armv7e-m/fpv4-sp-d16\libgcc.a(_dvmd_tls.o)
                                                  c:/program files (x86)/atollic/truestudio for arm pro 3.2.0/armtools/bin/../lib/gcc/arm-atollic-eabi/4.6.2/thumb/softfp/armv7e-m/fpv4-sp-d16\libgcc.a(_aeabi_uldivmod.o)
__aeabi_ui2d                                      c:/program files (x86)/atollic/truestudio for arm pro 3.2.0/armtools/bin/../lib/gcc/arm-atollic-eabi/4.6.2/thumb/softfp/armv7e-m/fpv4-sp-d16\libgcc.a(_arm_addsubdf3.o)
                                                  c:/program files (x86)/atollic/truestudio for arm pro 3.2.0/armtools/bin/../lib/gcc/arm-atollic-eabi/4.6.2/../../../../arm-atollic-eabi/lib/thumb/softfp/armv7e-m/fpv4-sp-d16\libc.a(lib_a-dtoa.o)
__aeabi_ul2d                                      c:/program files (x86)/atollic/truestudio for arm pro 3.2.0/armtools/bin/../lib/gcc/arm-atollic-eabi/4.6.2/thumb/softfp/armv7e-m/fpv4-sp-d16\libgcc.a(_arm_addsubdf3.o)
__aeabi_uldivmod                                  c:/program files (x86)/atollic/truestudio for arm pro 3.2.0/armtools/bin/../lib/gcc/arm-atollic-eabi/4.6.2/thumb/softfp/armv7e-m/fpv4-sp-d16\libgcc.a(_aeabi_uldivmod.o)
                                                  c:/program files (x86)/atollic/truestudio for arm pro 3.2.0/armtools/bin/../lib/gcc/arm-atollic-eabi/4.6.2/../../../../arm-atollic-eabi/lib/thumb/softfp/armv7e-m/fpv4-sp-d16\libc.a(lib_a-svfiprintf.o)
                                                  c:/program files (x86)/atollic/truestudio for arm pro 3.2.0/armtools/bin/../lib/gcc/arm-atollic-eabi/4.6.2/../../../../arm-atollic-eabi/lib/thumb/softfp/armv7e-m/fpv4-sp-d16\libc.a(lib_a-svfprintf.o)
__aeabi_unwind_cpp_pr0                            c:/program files (x86)/atollic/truestudio for arm pro 3.2.0/armtools/bin/../lib/gcc/arm-atollic-eabi/4.6.2/thumb/softfp/armv7e-m/fpv4-sp-d16\libgcc.a(unwind-arm.o)
                                                  c:/program files (x86)/atollic/truestudio for arm pro 3.2.0/armtools/bin/../lib/gcc/arm-atollic-eabi/4.6.2/thumb/softfp/armv7e-m/fpv4-sp-d16\libgcc.a(_udivdi3.o)
                                                  c:/program files (x86)/atollic/truestudio for arm pro 3.2.0/armtools/bin/../lib/gcc/arm-atollic-eabi/4.6.2/thumb/softfp/armv7e-m/fpv4-sp-d16\libgcc.a(_divdi3.o)
                                                  c:/program files (x86)/atollic/truestudio for arm pro 3.2.0/armtools/bin/../lib/gcc/arm-atollic-eabi/4.6.2/thumb/softfp/armv7e-m/fpv4-sp-d16\libgcc.a(pr-support.o)
                                                  c:/program files (x86)/atollic/truestudio for arm pro 3.2.0/armtools/bin/../lib/gcc/arm-atollic-eabi/4.6.2/thumb/softfp/armv7e-m/fpv4-sp-d16\libgcc.a(bpabi.o)
__aeabi_unwind_cpp_pr1                            c:/program files (x86)/atollic/truestudio for arm pro 3.2.0/armtools/bin/../lib/gcc/arm-atollic-eabi/4.6.2/thumb/softfp/armv7e-m/fpv4-sp-d16\libgcc.a(unwind-arm.o)
                                                  c:/program files (x86)/atollic/truestudio for arm pro 3.2.0/armtools/bin/../lib/gcc/arm-atollic-eabi/4.6.2/thumb/softfp/armv7e-m/fpv4-sp-d16\libgcc.a(pr-support.o)
__aeabi_unwind_cpp_pr2                            c:/program files (x86)/atollic/truestudio for arm pro 3.2.0/armtools/bin/../lib/gcc/arm-atollic-eabi/4.6.2/thumb/softfp/armv7e-m/fpv4-sp-d16\libgcc.a(unwind-arm.o)
__any_on                                          c:/program files (x86)/atollic/truestudio for arm pro 3.2.0/armtools/bin/../lib/gcc/arm-atollic-eabi/4.6.2/../../../../arm-atollic-eabi/lib/thumb/softfp/armv7e-m/fpv4-sp-d16\libc.a(lib_a-mprec.o)
__b2d                                             c:/program files (x86)/atollic/truestudio for arm pro 3.2.0/armtools/bin/../lib/gcc/arm-atollic-eabi/4.6.2/../../../../arm-atollic-eabi/lib/thumb/softfp/armv7e-m/fpv4-sp-d16\libc.a(lib_a-mprec.o)
__cmpdf2                                          c:/program files (x86)/atollic/truestudio for arm pro 3.2.0/armtools/bin/../lib/gcc/arm-atollic-eabi/4.6.2/thumb/softfp/armv7e-m/fpv4-sp-d16\libgcc.a(_arm_cmpdf2.o)
__copybits                                        c:/program files (x86)/atollic/truestudio for arm pro 3.2.0/armtools/bin/../lib/gcc/arm-atollic-eabi/4.6.2/../../../../arm-atollic-eabi/lib/thumb/softfp/armv7e-m/fpv4-sp-d16\libc.a(lib_a-mprec.o)
__cxa_begin_cleanup                               c:/program files (x86)/atollic/truestudio for arm pro 3.2.0/armtools/bin/../lib/gcc/arm-atollic-eabi/4.6.2/thumb/softfp/armv7e-m/fpv4-sp-d16\libgcc.a(unwind-arm.o)
__cxa_call_unexpected                             c:/program files (x86)/atollic/truestudio for arm pro 3.2.0/armtools/bin/../lib/gcc/arm-atollic-eabi/4.6.2/thumb/softfp/armv7e-m/fpv4-sp-d16\libgcc.a(unwind-arm.o)
__cxa_type_match                                  c:/program files (x86)/atollic/truestudio for arm pro 3.2.0/armtools/bin/../lib/gcc/arm-atollic-eabi/4.6.2/thumb/softfp/armv7e-m/fpv4-sp-d16\libgcc.a(unwind-arm.o)
__d2b                                             c:/program files (x86)/atollic/truestudio for arm pro 3.2.0/armtools/bin/../lib/gcc/arm-atollic-eabi/4.6.2/../../../../arm-atollic-eabi/lib/thumb/softfp/armv7e-m/fpv4-sp-d16\libc.a(lib_a-mprec.o)
                                                  c:/program files (x86)/atollic/truestudio for arm pro 3.2.0/armtools/bin/../lib/gcc/arm-atollic-eabi/4.6.2/../../../../arm-atollic-eabi/lib/thumb/softfp/armv7e-m/fpv4-sp-d16\libc.a(lib_a-dtoa.o)
__deregister_frame_info                           c:/program files (x86)/atollic/truestudio for arm pro 3.2.0/armtools/bin/../lib/gcc/arm-atollic-eabi/4.6.2/thumb/softfp/armv7e-m/fpv4-sp-d16/crtbegin.o
__divdf3                                          c:/program files (x86)/atollic/truestudio for arm pro 3.2.0/armtools/bin/../lib/gcc/arm-atollic-eabi/4.6.2/thumb/softfp/armv7e-m/fpv4-sp-d16\libgcc.a(_arm_muldivdf3.o)
__divdi3                                          c:/program files (x86)/atollic/truestudio for arm pro 3.2.0/armtools/bin/../lib/gcc/arm-atollic-eabi/4.6.2/thumb/softfp/armv7e-m/fpv4-sp-d16\libgcc.a(_divdi3.o)
                                                  c:/program files (x86)/atollic/truestudio for arm pro 3.2.0/armtools/bin/../lib/gcc/arm-atollic-eabi/4.6.2/thumb/softfp/armv7e-m/fpv4-sp-d16\libgcc.a(bpabi.o)
__dso_handle                                      c:/program files (x86)/atollic/truestudio for arm pro 3.2.0/armtools/bin/../lib/gcc/arm-atollic-eabi/4.6.2/thumb/softfp/armv7e-m/fpv4-sp-d16/crtbegin.o
__env                                             c:/program files (x86)/atollic/truestudio for arm pro 3.2.0/armtools/bin/../lib/gcc/arm-atollic-eabi/4.6.2/../../../../arm-atollic-eabi/lib/thumb/softfp/armv7e-m/fpv4-sp-d16\libc.a(lib_a-syscalls.o)
__eqdf2                                           c:/program files (x86)/atollic/truestudio for arm pro 3.2.0/armtools/bin/../lib/gcc/arm-atollic-eabi/4.6.2/thumb/softfp/armv7e-m/fpv4-sp-d16\libgcc.a(_arm_cmpdf2.o)
__exidx_end                                       c:/program files (x86)/atollic/truestudio for arm pro 3.2.0/armtools/bin/../lib/gcc/arm-atollic-eabi/4.6.2/thumb/softfp/armv7e-m/fpv4-sp-d16\libgcc.a(unwind-arm.o)
__exidx_start                                     c:/program files (x86)/atollic/truestudio for arm pro 3.2.0/armtools/bin/../lib/gcc/arm-atollic-eabi/4.6.2/thumb/softfp/armv7e-m/fpv4-sp-d16\libgcc.a(unwind-arm.o)
__extendsfdf2                                     c:/program files (x86)/atollic/truestudio for arm pro 3.2.0/armtools/bin/../lib/gcc/arm-atollic-eabi/4.6.2/thumb/softfp/armv7e-m/fpv4-sp-d16\libgcc.a(_arm_addsubdf3.o)
__fixdfsi                                         c:/program files (x86)/atollic/truestudio for arm pro 3.2.0/armtools/bin/../lib/gcc/arm-atollic-eabi/4.6.2/thumb/softfp/armv7e-m/fpv4-sp-d16\libgcc.a(_arm_fixdfsi.o)
__floatdidf                                       c:/program files (x86)/atollic/truestudio for arm pro 3.2.0/armtools/bin/../lib/gcc/arm-atollic-eabi/4.6.2/thumb/softfp/armv7e-m/fpv4-sp-d16\libgcc.a(_arm_addsubdf3.o)
__floatsidf                                       c:/program files (x86)/atollic/truestudio for arm pro 3.2.0/armtools/bin/../lib/gcc/arm-atollic-eabi/4.6.2/thumb/softfp/armv7e-m/fpv4-sp-d16\libgcc.a(_arm_addsubdf3.o)
__floatundidf                                     c:/program files (x86)/atollic/truestudio for arm pro 3.2.0/armtools/bin/../lib/gcc/arm-atollic-eabi/4.6.2/thumb/softfp/armv7e-m/fpv4-sp-d16\libgcc.a(_arm_addsubdf3.o)
__floatunsidf                                     c:/program files (x86)/atollic/truestudio for arm pro 3.2.0/armtools/bin/../lib/gcc/arm-atollic-eabi/4.6.2/thumb/softfp/armv7e-m/fpv4-sp-d16\libgcc.a(_arm_addsubdf3.o)
__fpclassifyd                                     c:/program files (x86)/atollic/truestudio for arm pro 3.2.0/armtools/bin/../lib/gcc/arm-atollic-eabi/4.6.2/../../../../arm-atollic-eabi/lib/thumb/softfp/armv7e-m/fpv4-sp-d16\libc.a(lib_a-s_fpclassify.o)
                                                  c:/program files (x86)/atollic/truestudio for arm pro 3.2.0/armtools/bin/../lib/gcc/arm-atollic-eabi/4.6.2/../../../../arm-atollic-eabi/lib/thumb/softfp/armv7e-m/fpv4-sp-d16\libc.a(lib_a-svfprintf.o)
__gedf2                                           c:/program files (x86)/atollic/truestudio for arm pro 3.2.0/armtools/bin/../lib/gcc/arm-atollic-eabi/4.6.2/thumb/softfp/armv7e-m/fpv4-sp-d16\libgcc.a(_arm_cmpdf2.o)
__gnu_Unwind_Backtrace                            c:/program files (x86)/atollic/truestudio for arm pro 3.2.0/armtools/bin/../lib/gcc/arm-atollic-eabi/4.6.2/thumb/softfp/armv7e-m/fpv4-sp-d16\libgcc.a(unwind-arm.o)
                                                  c:/program files (x86)/atollic/truestudio for arm pro 3.2.0/armtools/bin/../lib/gcc/arm-atollic-eabi/4.6.2/thumb/softfp/armv7e-m/fpv4-sp-d16\libgcc.a(libunwind.o)
__gnu_Unwind_Find_exidx                           c:/program files (x86)/atollic/truestudio for arm pro 3.2.0/armtools/bin/../lib/gcc/arm-atollic-eabi/4.6.2/thumb/softfp/armv7e-m/fpv4-sp-d16\libgcc.a(unwind-arm.o)
__gnu_Unwind_ForcedUnwind                         c:/program files (x86)/atollic/truestudio for arm pro 3.2.0/armtools/bin/../lib/gcc/arm-atollic-eabi/4.6.2/thumb/softfp/armv7e-m/fpv4-sp-d16\libgcc.a(unwind-arm.o)
                                                  c:/program files (x86)/atollic/truestudio for arm pro 3.2.0/armtools/bin/../lib/gcc/arm-atollic-eabi/4.6.2/thumb/softfp/armv7e-m/fpv4-sp-d16\libgcc.a(libunwind.o)
__gnu_Unwind_RaiseException                       c:/program files (x86)/atollic/truestudio for arm pro 3.2.0/armtools/bin/../lib/gcc/arm-atollic-eabi/4.6.2/thumb/softfp/armv7e-m/fpv4-sp-d16\libgcc.a(unwind-arm.o)
                                                  c:/program files (x86)/atollic/truestudio for arm pro 3.2.0/armtools/bin/../lib/gcc/arm-atollic-eabi/4.6.2/thumb/softfp/armv7e-m/fpv4-sp-d16\libgcc.a(libunwind.o)
__gnu_Unwind_Restore_VFP                          c:/program files (x86)/atollic/truestudio for arm pro 3.2.0/armtools/bin/../lib/gcc/arm-atollic-eabi/4.6.2/thumb/softfp/armv7e-m/fpv4-sp-d16\libgcc.a(libunwind.o)
                                                  c:/program files (x86)/atollic/truestudio for arm pro 3.2.0/armtools/bin/../lib/gcc/arm-atollic-eabi/4.6.2/thumb/softfp/armv7e-m/fpv4-sp-d16\libgcc.a(unwind-arm.o)
__gnu_Unwind_Restore_VFP_D                        c:/program files (x86)/atollic/truestudio for arm pro 3.2.0/armtools/bin/../lib/gcc/arm-atollic-eabi/4.6.2/thumb/softfp/armv7e-m/fpv4-sp-d16\libgcc.a(libunwind.o)
                                                  c:/program files (x86)/atollic/truestudio for arm pro 3.2.0/armtools/bin/../lib/gcc/arm-atollic-eabi/4.6.2/thumb/softfp/armv7e-m/fpv4-sp-d16\libgcc.a(unwind-arm.o)
__gnu_Unwind_Restore_VFP_D_16_to_31               c:/program files (x86)/atollic/truestudio for arm pro 3.2.0/armtools/bin/../lib/gcc/arm-atollic-eabi/4.6.2/thumb/softfp/armv7e-m/fpv4-sp-d16\libgcc.a(libunwind.o)
                                                  c:/program files (x86)/atollic/truestudio for arm pro 3.2.0/armtools/bin/../lib/gcc/arm-atollic-eabi/4.6.2/thumb/softfp/armv7e-m/fpv4-sp-d16\libgcc.a(unwind-arm.o)
__gnu_Unwind_Restore_WMMXC                        c:/program files (x86)/atollic/truestudio for arm pro 3.2.0/armtools/bin/../lib/gcc/arm-atollic-eabi/4.6.2/thumb/softfp/armv7e-m/fpv4-sp-d16\libgcc.a(libunwind.o)
                                                  c:/program files (x86)/atollic/truestudio for arm pro 3.2.0/armtools/bin/../lib/gcc/arm-atollic-eabi/4.6.2/thumb/softfp/armv7e-m/fpv4-sp-d16\libgcc.a(unwind-arm.o)
__gnu_Unwind_Restore_WMMXD                        c:/program files (x86)/atollic/truestudio for arm pro 3.2.0/armtools/bin/../lib/gcc/arm-atollic-eabi/4.6.2/thumb/softfp/armv7e-m/fpv4-sp-d16\libgcc.a(libunwind.o)
                                                  c:/program files (x86)/atollic/truestudio for arm pro 3.2.0/armtools/bin/../lib/gcc/arm-atollic-eabi/4.6.2/thumb/softfp/armv7e-m/fpv4-sp-d16\libgcc.a(unwind-arm.o)
__gnu_Unwind_Resume                               c:/program files (x86)/atollic/truestudio for arm pro 3.2.0/armtools/bin/../lib/gcc/arm-atollic-eabi/4.6.2/thumb/softfp/armv7e-m/fpv4-sp-d16\libgcc.a(unwind-arm.o)
                                                  c:/program files (x86)/atollic/truestudio for arm pro 3.2.0/armtools/bin/../lib/gcc/arm-atollic-eabi/4.6.2/thumb/softfp/armv7e-m/fpv4-sp-d16\libgcc.a(libunwind.o)
__gnu_Unwind_Resume_or_Rethrow                    c:/program files (x86)/atollic/truestudio for arm pro 3.2.0/armtools/bin/../lib/gcc/arm-atollic-eabi/4.6.2/thumb/softfp/armv7e-m/fpv4-sp-d16\libgcc.a(unwind-arm.o)
                                                  c:/program files (x86)/atollic/truestudio for arm pro 3.2.0/armtools/bin/../lib/gcc/arm-atollic-eabi/4.6.2/thumb/softfp/armv7e-m/fpv4-sp-d16\libgcc.a(libunwind.o)
__gnu_Unwind_Save_VFP                             c:/program files (x86)/atollic/truestudio for arm pro 3.2.0/armtools/bin/../lib/gcc/arm-atollic-eabi/4.6.2/thumb/softfp/armv7e-m/fpv4-sp-d16\libgcc.a(libunwind.o)
                                                  c:/program files (x86)/atollic/truestudio for arm pro 3.2.0/armtools/bin/../lib/gcc/arm-atollic-eabi/4.6.2/thumb/softfp/armv7e-m/fpv4-sp-d16\libgcc.a(unwind-arm.o)
__gnu_Unwind_Save_VFP_D                           c:/program files (x86)/atollic/truestudio for arm pro 3.2.0/armtools/bin/../lib/gcc/arm-atollic-eabi/4.6.2/thumb/softfp/armv7e-m/fpv4-sp-d16\libgcc.a(libunwind.o)
                                                  c:/program files (x86)/atollic/truestudio for arm pro 3.2.0/armtools/bin/../lib/gcc/arm-atollic-eabi/4.6.2/thumb/softfp/armv7e-m/fpv4-sp-d16\libgcc.a(unwind-arm.o)
__gnu_Unwind_Save_VFP_D_16_to_31                  c:/program files (x86)/atollic/truestudio for arm pro 3.2.0/armtools/bin/../lib/gcc/arm-atollic-eabi/4.6.2/thumb/softfp/armv7e-m/fpv4-sp-d16\libgcc.a(libunwind.o)
                                                  c:/program files (x86)/atollic/truestudio for arm pro 3.2.0/armtools/bin/../lib/gcc/arm-atollic-eabi/4.6.2/thumb/softfp/armv7e-m/fpv4-sp-d16\libgcc.a(unwind-arm.o)
__gnu_Unwind_Save_WMMXC                           c:/program files (x86)/atollic/truestudio for arm pro 3.2.0/armtools/bin/../lib/gcc/arm-atollic-eabi/4.6.2/thumb/softfp/armv7e-m/fpv4-sp-d16\libgcc.a(libunwind.o)
                                                  c:/program files (x86)/atollic/truestudio for arm pro 3.2.0/armtools/bin/../lib/gcc/arm-atollic-eabi/4.6.2/thumb/softfp/armv7e-m/fpv4-sp-d16\libgcc.a(unwind-arm.o)
__gnu_Unwind_Save_WMMXD                           c:/program files (x86)/atollic/truestudio for arm pro 3.2.0/armtools/bin/../lib/gcc/arm-atollic-eabi/4.6.2/thumb/softfp/armv7e-m/fpv4-sp-d16\libgcc.a(libunwind.o)
                                                  c:/program files (x86)/atollic/truestudio for arm pro 3.2.0/armtools/bin/../lib/gcc/arm-atollic-eabi/4.6.2/thumb/softfp/armv7e-m/fpv4-sp-d16\libgcc.a(unwind-arm.o)
__gnu_ldivmod_helper                              c:/program files (x86)/atollic/truestudio for arm pro 3.2.0/armtools/bin/../lib/gcc/arm-atollic-eabi/4.6.2/thumb/softfp/armv7e-m/fpv4-sp-d16\libgcc.a(bpabi.o)
__gnu_uldivmod_helper                             c:/program files (x86)/atollic/truestudio for arm pro 3.2.0/armtools/bin/../lib/gcc/arm-atollic-eabi/4.6.2/thumb/softfp/armv7e-m/fpv4-sp-d16\libgcc.a(bpabi.o)
                                                  c:/program files (x86)/atollic/truestudio for arm pro 3.2.0/armtools/bin/../lib/gcc/arm-atollic-eabi/4.6.2/thumb/softfp/armv7e-m/fpv4-sp-d16\libgcc.a(_aeabi_uldivmod.o)
__gnu_unwind_execute                              c:/program files (x86)/atollic/truestudio for arm pro 3.2.0/armtools/bin/../lib/gcc/arm-atollic-eabi/4.6.2/thumb/softfp/armv7e-m/fpv4-sp-d16\libgcc.a(pr-support.o)
                                                  c:/program files (x86)/atollic/truestudio for arm pro 3.2.0/armtools/bin/../lib/gcc/arm-atollic-eabi/4.6.2/thumb/softfp/armv7e-m/fpv4-sp-d16\libgcc.a(unwind-arm.o)
__gnu_unwind_frame                                c:/program files (x86)/atollic/truestudio for arm pro 3.2.0/armtools/bin/../lib/gcc/arm-atollic-eabi/4.6.2/thumb/softfp/armv7e-m/fpv4-sp-d16\libgcc.a(pr-support.o)
__gtdf2                                           c:/program files (x86)/atollic/truestudio for arm pro 3.2.0/armtools/bin/../lib/gcc/arm-atollic-eabi/4.6.2/thumb/softfp/armv7e-m/fpv4-sp-d16\libgcc.a(_arm_cmpdf2.o)
__hi0bits                                         c:/program files (x86)/atollic/truestudio for arm pro 3.2.0/armtools/bin/../lib/gcc/arm-atollic-eabi/4.6.2/../../../../arm-atollic-eabi/lib/thumb/softfp/armv7e-m/fpv4-sp-d16\libc.a(lib_a-mprec.o)
                                                  c:/program files (x86)/atollic/truestudio for arm pro 3.2.0/armtools/bin/../lib/gcc/arm-atollic-eabi/4.6.2/../../../../arm-atollic-eabi/lib/thumb/softfp/armv7e-m/fpv4-sp-d16\libc.a(lib_a-dtoa.o)
__i2b                                             c:/program files (x86)/atollic/truestudio for arm pro 3.2.0/armtools/bin/../lib/gcc/arm-atollic-eabi/4.6.2/../../../../arm-atollic-eabi/lib/thumb/softfp/armv7e-m/fpv4-sp-d16\libc.a(lib_a-mprec.o)
                                                  c:/program files (x86)/atollic/truestudio for arm pro 3.2.0/armtools/bin/../lib/gcc/arm-atollic-eabi/4.6.2/../../../../arm-atollic-eabi/lib/thumb/softfp/armv7e-m/fpv4-sp-d16\libc.a(lib_a-dtoa.o)
__init_array_end                                  c:/program files (x86)/atollic/truestudio for arm pro 3.2.0/armtools/bin/../lib/gcc/arm-atollic-eabi/4.6.2/../../../../arm-atollic-eabi/lib/thumb/softfp/armv7e-m/fpv4-sp-d16\libc.a(lib_a-init.o)
__init_array_start                                c:/program files (x86)/atollic/truestudio for arm pro 3.2.0/armtools/bin/../lib/gcc/arm-atollic-eabi/4.6.2/../../../../arm-atollic-eabi/lib/thumb/softfp/armv7e-m/fpv4-sp-d16\libc.a(lib_a-init.o)
__ledf2                                           c:/program files (x86)/atollic/truestudio for arm pro 3.2.0/armtools/bin/../lib/gcc/arm-atollic-eabi/4.6.2/thumb/softfp/armv7e-m/fpv4-sp-d16\libgcc.a(_arm_cmpdf2.o)
__libc_init_array                                 c:/program files (x86)/atollic/truestudio for arm pro 3.2.0/armtools/bin/../lib/gcc/arm-atollic-eabi/4.6.2/../../../../arm-atollic-eabi/lib/thumb/softfp/armv7e-m/fpv4-sp-d16\libc.a(lib_a-init.o)
                                                  BSP\cstartup.o
__lo0bits                                         c:/program files (x86)/atollic/truestudio for arm pro 3.2.0/armtools/bin/../lib/gcc/arm-atollic-eabi/4.6.2/../../../../arm-atollic-eabi/lib/thumb/softfp/armv7e-m/fpv4-sp-d16\libc.a(lib_a-mprec.o)
__locale_charset                                  c:/program files (x86)/atollic/truestudio for arm pro 3.2.0/armtools/bin/../lib/gcc/arm-atollic-eabi/4.6.2/../../../../arm-atollic-eabi/lib/thumb/softfp/armv7e-m/fpv4-sp-d16\libc.a(lib_a-locale.o)
__locale_cjk_lang                                 c:/program files (x86)/atollic/truestudio for arm pro 3.2.0/armtools/bin/../lib/gcc/arm-atollic-eabi/4.6.2/../../../../arm-atollic-eabi/lib/thumb/softfp/armv7e-m/fpv4-sp-d16\libc.a(lib_a-locale.o)
__locale_mb_cur_max                               c:/program files (x86)/atollic/truestudio for arm pro 3.2.0/armtools/bin/../lib/gcc/arm-atollic-eabi/4.6.2/../../../../arm-atollic-eabi/lib/thumb/softfp/armv7e-m/fpv4-sp-d16\libc.a(lib_a-locale.o)
__locale_msgcharset                               c:/program files (x86)/atollic/truestudio for arm pro 3.2.0/armtools/bin/../lib/gcc/arm-atollic-eabi/4.6.2/../../../../arm-atollic-eabi/lib/thumb/softfp/armv7e-m/fpv4-sp-d16\libc.a(lib_a-locale.o)
__lshift                                          c:/program files (x86)/atollic/truestudio for arm pro 3.2.0/armtools/bin/../lib/gcc/arm-atollic-eabi/4.6.2/../../../../arm-atollic-eabi/lib/thumb/softfp/armv7e-m/fpv4-sp-d16\libc.a(lib_a-mprec.o)
                                                  c:/program files (x86)/atollic/truestudio for arm pro 3.2.0/armtools/bin/../lib/gcc/arm-atollic-eabi/4.6.2/../../../../arm-atollic-eabi/lib/thumb/softfp/armv7e-m/fpv4-sp-d16\libc.a(lib_a-dtoa.o)
__ltdf2                                           c:/program files (x86)/atollic/truestudio for arm pro 3.2.0/armtools/bin/../lib/gcc/arm-atollic-eabi/4.6.2/thumb/softfp/armv7e-m/fpv4-sp-d16\libgcc.a(_arm_cmpdf2.o)
__malloc_av_                                      c:/program files (x86)/atollic/truestudio for arm pro 3.2.0/armtools/bin/../lib/gcc/arm-atollic-eabi/4.6.2/../../../../arm-atollic-eabi/lib/thumb/softfp/armv7e-m/fpv4-sp-d16\libc.a(lib_a-mallocr.o)
                                                  c:/program files (x86)/atollic/truestudio for arm pro 3.2.0/armtools/bin/../lib/gcc/arm-atollic-eabi/4.6.2/../../../../arm-atollic-eabi/lib/thumb/softfp/armv7e-m/fpv4-sp-d16\libc.a(lib_a-reallocr.o)
                                                  c:/program files (x86)/atollic/truestudio for arm pro 3.2.0/armtools/bin/../lib/gcc/arm-atollic-eabi/4.6.2/../../../../arm-atollic-eabi/lib/thumb/softfp/armv7e-m/fpv4-sp-d16\libc.a(lib_a-freer.o)
__malloc_current_mallinfo                         c:/program files (x86)/atollic/truestudio for arm pro 3.2.0/armtools/bin/../lib/gcc/arm-atollic-eabi/4.6.2/../../../../arm-atollic-eabi/lib/thumb/softfp/armv7e-m/fpv4-sp-d16\libc.a(lib_a-mallocr.o)
                                                  c:/program files (x86)/atollic/truestudio for arm pro 3.2.0/armtools/bin/../lib/gcc/arm-atollic-eabi/4.6.2/../../../../arm-atollic-eabi/lib/thumb/softfp/armv7e-m/fpv4-sp-d16\libc.a(lib_a-freer.o)
__malloc_lock                                     c:/program files (x86)/atollic/truestudio for arm pro 3.2.0/armtools/bin/../lib/gcc/arm-atollic-eabi/4.6.2/../../../../arm-atollic-eabi/lib/thumb/softfp/armv7e-m/fpv4-sp-d16\libc.a(lib_a-mlock.o)
                                                  c:/program files (x86)/atollic/truestudio for arm pro 3.2.0/armtools/bin/../lib/gcc/arm-atollic-eabi/4.6.2/../../../../arm-atollic-eabi/lib/thumb/softfp/armv7e-m/fpv4-sp-d16\libc.a(lib_a-reallocr.o)
                                                  c:/program files (x86)/atollic/truestudio for arm pro 3.2.0/armtools/bin/../lib/gcc/arm-atollic-eabi/4.6.2/../../../../arm-atollic-eabi/lib/thumb/softfp/armv7e-m/fpv4-sp-d16\libc.a(lib_a-freer.o)
                                                  c:/program files (x86)/atollic/truestudio for arm pro 3.2.0/armtools/bin/../lib/gcc/arm-atollic-eabi/4.6.2/../../../../arm-atollic-eabi/lib/thumb/softfp/armv7e-m/fpv4-sp-d16\libc.a(lib_a-mallocr.o)
__malloc_max_sbrked_mem                           c:/program files (x86)/atollic/truestudio for arm pro 3.2.0/armtools/bin/../lib/gcc/arm-atollic-eabi/4.6.2/../../../../arm-atollic-eabi/lib/thumb/softfp/armv7e-m/fpv4-sp-d16\libc.a(lib_a-mallocr.o)
__malloc_max_total_mem                            c:/program files (x86)/atollic/truestudio for arm pro 3.2.0/armtools/bin/../lib/gcc/arm-atollic-eabi/4.6.2/../../../../arm-atollic-eabi/lib/thumb/softfp/armv7e-m/fpv4-sp-d16\libc.a(lib_a-mallocr.o)
__malloc_sbrk_base                                c:/program files (x86)/atollic/truestudio for arm pro 3.2.0/armtools/bin/../lib/gcc/arm-atollic-eabi/4.6.2/../../../../arm-atollic-eabi/lib/thumb/softfp/armv7e-m/fpv4-sp-d16\libc.a(lib_a-mallocr.o)
                                                  c:/program files (x86)/atollic/truestudio for arm pro 3.2.0/armtools/bin/../lib/gcc/arm-atollic-eabi/4.6.2/../../../../arm-atollic-eabi/lib/thumb/softfp/armv7e-m/fpv4-sp-d16\libc.a(lib_a-freer.o)
__malloc_top_pad                                  c:/program files (x86)/atollic/truestudio for arm pro 3.2.0/armtools/bin/../lib/gcc/arm-atollic-eabi/4.6.2/../../../../arm-atollic-eabi/lib/thumb/softfp/armv7e-m/fpv4-sp-d16\libc.a(lib_a-mallocr.o)
                                                  c:/program files (x86)/atollic/truestudio for arm pro 3.2.0/armtools/bin/../lib/gcc/arm-atollic-eabi/4.6.2/../../../../arm-atollic-eabi/lib/thumb/softfp/armv7e-m/fpv4-sp-d16\libc.a(lib_a-freer.o)
__malloc_trim_threshold                           c:/program files (x86)/atollic/truestudio for arm pro 3.2.0/armtools/bin/../lib/gcc/arm-atollic-eabi/4.6.2/../../../../arm-atollic-eabi/lib/thumb/softfp/armv7e-m/fpv4-sp-d16\libc.a(lib_a-mallocr.o)
                                                  c:/program files (x86)/atollic/truestudio for arm pro 3.2.0/armtools/bin/../lib/gcc/arm-atollic-eabi/4.6.2/../../../../arm-atollic-eabi/lib/thumb/softfp/armv7e-m/fpv4-sp-d16\libc.a(lib_a-freer.o)
__malloc_unlock                                   c:/program files (x86)/atollic/truestudio for arm pro 3.2.0/armtools/bin/../lib/gcc/arm-atollic-eabi/4.6.2/../../../../arm-atollic-eabi/lib/thumb/softfp/armv7e-m/fpv4-sp-d16\libc.a(lib_a-mlock.o)
                                                  c:/program files (x86)/atollic/truestudio for arm pro 3.2.0/armtools/bin/../lib/gcc/arm-atollic-eabi/4.6.2/../../../../arm-atollic-eabi/lib/thumb/softfp/armv7e-m/fpv4-sp-d16\libc.a(lib_a-reallocr.o)
                                                  c:/program files (x86)/atollic/truestudio for arm pro 3.2.0/armtools/bin/../lib/gcc/arm-atollic-eabi/4.6.2/../../../../arm-atollic-eabi/lib/thumb/softfp/armv7e-m/fpv4-sp-d16\libc.a(lib_a-freer.o)
                                                  c:/program files (x86)/atollic/truestudio for arm pro 3.2.0/armtools/bin/../lib/gcc/arm-atollic-eabi/4.6.2/../../../../arm-atollic-eabi/lib/thumb/softfp/armv7e-m/fpv4-sp-d16\libc.a(lib_a-mallocr.o)
__mb_cur_max                                      c:/program files (x86)/atollic/truestudio for arm pro 3.2.0/armtools/bin/../lib/gcc/arm-atollic-eabi/4.6.2/../../../../arm-atollic-eabi/lib/thumb/softfp/armv7e-m/fpv4-sp-d16\libc.a(lib_a-locale.o)
__mcmp                                            c:/program files (x86)/atollic/truestudio for arm pro 3.2.0/armtools/bin/../lib/gcc/arm-atollic-eabi/4.6.2/../../../../arm-atollic-eabi/lib/thumb/softfp/armv7e-m/fpv4-sp-d16\libc.a(lib_a-mprec.o)
                                                  c:/program files (x86)/atollic/truestudio for arm pro 3.2.0/armtools/bin/../lib/gcc/arm-atollic-eabi/4.6.2/../../../../arm-atollic-eabi/lib/thumb/softfp/armv7e-m/fpv4-sp-d16\libc.a(lib_a-dtoa.o)
__mdiff                                           c:/program files (x86)/atollic/truestudio for arm pro 3.2.0/armtools/bin/../lib/gcc/arm-atollic-eabi/4.6.2/../../../../arm-atollic-eabi/lib/thumb/softfp/armv7e-m/fpv4-sp-d16\libc.a(lib_a-mprec.o)
                                                  c:/program files (x86)/atollic/truestudio for arm pro 3.2.0/armtools/bin/../lib/gcc/arm-atollic-eabi/4.6.2/../../../../arm-atollic-eabi/lib/thumb/softfp/armv7e-m/fpv4-sp-d16\libc.a(lib_a-dtoa.o)
__mlocale_changed                                 c:/program files (x86)/atollic/truestudio for arm pro 3.2.0/armtools/bin/../lib/gcc/arm-atollic-eabi/4.6.2/../../../../arm-atollic-eabi/lib/thumb/softfp/armv7e-m/fpv4-sp-d16\libc.a(lib_a-locale.o)
__mprec_bigtens                                   c:/program files (x86)/atollic/truestudio for arm pro 3.2.0/armtools/bin/../lib/gcc/arm-atollic-eabi/4.6.2/../../../../arm-atollic-eabi/lib/thumb/softfp/armv7e-m/fpv4-sp-d16\libc.a(lib_a-mprec.o)
                                                  c:/program files (x86)/atollic/truestudio for arm pro 3.2.0/armtools/bin/../lib/gcc/arm-atollic-eabi/4.6.2/../../../../arm-atollic-eabi/lib/thumb/softfp/armv7e-m/fpv4-sp-d16\libc.a(lib_a-dtoa.o)
__mprec_tens                                      c:/program files (x86)/atollic/truestudio for arm pro 3.2.0/armtools/bin/../lib/gcc/arm-atollic-eabi/4.6.2/../../../../arm-atollic-eabi/lib/thumb/softfp/armv7e-m/fpv4-sp-d16\libc.a(lib_a-mprec.o)
                                                  c:/program files (x86)/atollic/truestudio for arm pro 3.2.0/armtools/bin/../lib/gcc/arm-atollic-eabi/4.6.2/../../../../arm-atollic-eabi/lib/thumb/softfp/armv7e-m/fpv4-sp-d16\libc.a(lib_a-dtoa.o)
__mprec_tinytens                                  c:/program files (x86)/atollic/truestudio for arm pro 3.2.0/armtools/bin/../lib/gcc/arm-atollic-eabi/4.6.2/../../../../arm-atollic-eabi/lib/thumb/softfp/armv7e-m/fpv4-sp-d16\libc.a(lib_a-mprec.o)
__muldf3                                          c:/program files (x86)/atollic/truestudio for arm pro 3.2.0/armtools/bin/../lib/gcc/arm-atollic-eabi/4.6.2/thumb/softfp/armv7e-m/fpv4-sp-d16\libgcc.a(_arm_muldivdf3.o)
__multadd                                         c:/program files (x86)/atollic/truestudio for arm pro 3.2.0/armtools/bin/../lib/gcc/arm-atollic-eabi/4.6.2/../../../../arm-atollic-eabi/lib/thumb/softfp/armv7e-m/fpv4-sp-d16\libc.a(lib_a-mprec.o)
                                                  c:/program files (x86)/atollic/truestudio for arm pro 3.2.0/armtools/bin/../lib/gcc/arm-atollic-eabi/4.6.2/../../../../arm-atollic-eabi/lib/thumb/softfp/armv7e-m/fpv4-sp-d16\libc.a(lib_a-dtoa.o)
__multiply                                        c:/program files (x86)/atollic/truestudio for arm pro 3.2.0/armtools/bin/../lib/gcc/arm-atollic-eabi/4.6.2/../../../../arm-atollic-eabi/lib/thumb/softfp/armv7e-m/fpv4-sp-d16\libc.a(lib_a-mprec.o)
                                                  c:/program files (x86)/atollic/truestudio for arm pro 3.2.0/armtools/bin/../lib/gcc/arm-atollic-eabi/4.6.2/../../../../arm-atollic-eabi/lib/thumb/softfp/armv7e-m/fpv4-sp-d16\libc.a(lib_a-dtoa.o)
__nedf2                                           c:/program files (x86)/atollic/truestudio for arm pro 3.2.0/armtools/bin/../lib/gcc/arm-atollic-eabi/4.6.2/thumb/softfp/armv7e-m/fpv4-sp-d16\libgcc.a(_arm_cmpdf2.o)
__nlocale_changed                                 c:/program files (x86)/atollic/truestudio for arm pro 3.2.0/armtools/bin/../lib/gcc/arm-atollic-eabi/4.6.2/../../../../arm-atollic-eabi/lib/thumb/softfp/armv7e-m/fpv4-sp-d16\libc.a(lib_a-locale.o)
__pow5mult                                        c:/program files (x86)/atollic/truestudio for arm pro 3.2.0/armtools/bin/../lib/gcc/arm-atollic-eabi/4.6.2/../../../../arm-atollic-eabi/lib/thumb/softfp/armv7e-m/fpv4-sp-d16\libc.a(lib_a-mprec.o)
                                                  c:/program files (x86)/atollic/truestudio for arm pro 3.2.0/armtools/bin/../lib/gcc/arm-atollic-eabi/4.6.2/../../../../arm-atollic-eabi/lib/thumb/softfp/armv7e-m/fpv4-sp-d16\libc.a(lib_a-dtoa.o)
__preinit_array_end                               c:/program files (x86)/atollic/truestudio for arm pro 3.2.0/armtools/bin/../lib/gcc/arm-atollic-eabi/4.6.2/../../../../arm-atollic-eabi/lib/thumb/softfp/armv7e-m/fpv4-sp-d16\libc.a(lib_a-init.o)
__preinit_array_start                             c:/program files (x86)/atollic/truestudio for arm pro 3.2.0/armtools/bin/../lib/gcc/arm-atollic-eabi/4.6.2/../../../../arm-atollic-eabi/lib/thumb/softfp/armv7e-m/fpv4-sp-d16\libc.a(lib_a-init.o)
__ratio                                           c:/program files (x86)/atollic/truestudio for arm pro 3.2.0/armtools/bin/../lib/gcc/arm-atollic-eabi/4.6.2/../../../../arm-atollic-eabi/lib/thumb/softfp/armv7e-m/fpv4-sp-d16\libc.a(lib_a-mprec.o)
__register_frame_info                             c:/program files (x86)/atollic/truestudio for arm pro 3.2.0/armtools/bin/../lib/gcc/arm-atollic-eabi/4.6.2/thumb/softfp/armv7e-m/fpv4-sp-d16/crtbegin.o
__restore_core_regs                               c:/program files (x86)/atollic/truestudio for arm pro 3.2.0/armtools/bin/../lib/gcc/arm-atollic-eabi/4.6.2/thumb/softfp/armv7e-m/fpv4-sp-d16\libgcc.a(libunwind.o)
__s2b                                             c:/program files (x86)/atollic/truestudio for arm pro 3.2.0/armtools/bin/../lib/gcc/arm-atollic-eabi/4.6.2/../../../../arm-atollic-eabi/lib/thumb/softfp/armv7e-m/fpv4-sp-d16\libc.a(lib_a-mprec.o)
__sf_fake_stderr                                  c:/program files (x86)/atollic/truestudio for arm pro 3.2.0/armtools/bin/../lib/gcc/arm-atollic-eabi/4.6.2/../../../../arm-atollic-eabi/lib/thumb/softfp/armv7e-m/fpv4-sp-d16\libc.a(lib_a-impure.o)
__sf_fake_stdin                                   c:/program files (x86)/atollic/truestudio for arm pro 3.2.0/armtools/bin/../lib/gcc/arm-atollic-eabi/4.6.2/../../../../arm-atollic-eabi/lib/thumb/softfp/armv7e-m/fpv4-sp-d16\libc.a(lib_a-impure.o)
__sf_fake_stdout                                  c:/program files (x86)/atollic/truestudio for arm pro 3.2.0/armtools/bin/../lib/gcc/arm-atollic-eabi/4.6.2/../../../../arm-atollic-eabi/lib/thumb/softfp/armv7e-m/fpv4-sp-d16\libc.a(lib_a-impure.o)
__sigtramp                                        c:/program files (x86)/atollic/truestudio for arm pro 3.2.0/armtools/bin/../lib/gcc/arm-atollic-eabi/4.6.2/../../../../arm-atollic-eabi/lib/thumb/softfp/armv7e-m/fpv4-sp-d16\libc.a(lib_a-signal.o)
__sigtramp_r                                      c:/program files (x86)/atollic/truestudio for arm pro 3.2.0/armtools/bin/../lib/gcc/arm-atollic-eabi/4.6.2/../../../../arm-atollic-eabi/lib/thumb/softfp/armv7e-m/fpv4-sp-d16\libc.a(lib_a-signal.o)
__ssprint_r                                       c:/program files (x86)/atollic/truestudio for arm pro 3.2.0/armtools/bin/../lib/gcc/arm-atollic-eabi/4.6.2/../../../../arm-atollic-eabi/lib/thumb/softfp/armv7e-m/fpv4-sp-d16\libc.a(lib_a-svfiprintf.o)
                                                  c:/program files (x86)/atollic/truestudio for arm pro 3.2.0/armtools/bin/../lib/gcc/arm-atollic-eabi/4.6.2/../../../../arm-atollic-eabi/lib/thumb/softfp/armv7e-m/fpv4-sp-d16\libc.a(lib_a-svfprintf.o)
__subdf3                                          c:/program files (x86)/atollic/truestudio for arm pro 3.2.0/armtools/bin/../lib/gcc/arm-atollic-eabi/4.6.2/thumb/softfp/armv7e-m/fpv4-sp-d16\libgcc.a(_arm_addsubdf3.o)
__udivdi3                                         c:/program files (x86)/atollic/truestudio for arm pro 3.2.0/armtools/bin/../lib/gcc/arm-atollic-eabi/4.6.2/thumb/softfp/armv7e-m/fpv4-sp-d16\libgcc.a(_udivdi3.o)
                                                  c:/program files (x86)/atollic/truestudio for arm pro 3.2.0/armtools/bin/../lib/gcc/arm-atollic-eabi/4.6.2/thumb/softfp/armv7e-m/fpv4-sp-d16\libgcc.a(bpabi.o)
__ulp                                             c:/program files (x86)/atollic/truestudio for arm pro 3.2.0/armtools/bin/../lib/gcc/arm-atollic-eabi/4.6.2/../../../../arm-atollic-eabi/lib/thumb/softfp/armv7e-m/fpv4-sp-d16\libc.a(lib_a-mprec.o)
_calloc_r                                         c:/program files (x86)/atollic/truestudio for arm pro 3.2.0/armtools/bin/../lib/gcc/arm-atollic-eabi/4.6.2/../../../../arm-atollic-eabi/lib/thumb/softfp/armv7e-m/fpv4-sp-d16\libc.a(lib_a-callocr.o)
                                                  c:/program files (x86)/atollic/truestudio for arm pro 3.2.0/armtools/bin/../lib/gcc/arm-atollic-eabi/4.6.2/../../../../arm-atollic-eabi/lib/thumb/softfp/armv7e-m/fpv4-sp-d16\libc.a(lib_a-mprec.o)
_close                                            c:/program files (x86)/atollic/truestudio for arm pro 3.2.0/armtools/bin/../lib/gcc/arm-atollic-eabi/4.6.2/../../../../arm-atollic-eabi/lib/thumb/softfp/armv7e-m/fpv4-sp-d16\libc.a(lib_a-syscalls.o)
_dtoa_r                                           c:/program files (x86)/atollic/truestudio for arm pro 3.2.0/armtools/bin/../lib/gcc/arm-atollic-eabi/4.6.2/../../../../arm-atollic-eabi/lib/thumb/softfp/armv7e-m/fpv4-sp-d16\libc.a(lib_a-dtoa.o)
                                                  c:/program files (x86)/atollic/truestudio for arm pro 3.2.0/armtools/bin/../lib/gcc/arm-atollic-eabi/4.6.2/../../../../arm-atollic-eabi/lib/thumb/softfp/armv7e-m/fpv4-sp-d16\libc.a(lib_a-svfprintf.o)
_ebss                                             BSP\cstartup.o
_edata                                            BSP\cstartup.o
_estack                                           BSP\cstartup.o
_execve                                           c:/program files (x86)/atollic/truestudio for arm pro 3.2.0/armtools/bin/../lib/gcc/arm-atollic-eabi/4.6.2/../../../../arm-atollic-eabi/lib/thumb/softfp/armv7e-m/fpv4-sp-d16\libc.a(lib_a-syscalls.o)
_exit                                             c:/program files (x86)/atollic/truestudio for arm pro 3.2.0/armtools/bin/../lib/gcc/arm-atollic-eabi/4.6.2/../../../../arm-atollic-eabi/lib/thumb/softfp/armv7e-m/fpv4-sp-d16\libc.a(lib_a-syscalls.o)
                                                  c:/program files (x86)/atollic/truestudio for arm pro 3.2.0/armtools/bin/../lib/gcc/arm-atollic-eabi/4.6.2/../../../../arm-atollic-eabi/lib/thumb/softfp/armv7e-m/fpv4-sp-d16\libc.a(lib_a-abort.o)
_fini                                             c:/program files (x86)/atollic/truestudio for arm pro 3.2.0/armtools/bin/../lib/gcc/arm-atollic-eabi/4.6.2/thumb/softfp/armv7e-m/fpv4-sp-d16/crti.o
_fork                                             c:/program files (x86)/atollic/truestudio for arm pro 3.2.0/armtools/bin/../lib/gcc/arm-atollic-eabi/4.6.2/../../../../arm-atollic-eabi/lib/thumb/softfp/armv7e-m/fpv4-sp-d16\libc.a(lib_a-syscalls.o)
_free_r                                           c:/program files (x86)/atollic/truestudio for arm pro 3.2.0/armtools/bin/../lib/gcc/arm-atollic-eabi/4.6.2/../../../../arm-atollic-eabi/lib/thumb/softfp/armv7e-m/fpv4-sp-d16\libc.a(lib_a-freer.o)
                                                  c:/program files (x86)/atollic/truestudio for arm pro 3.2.0/armtools/bin/../lib/gcc/arm-atollic-eabi/4.6.2/../../../../arm-atollic-eabi/lib/thumb/softfp/armv7e-m/fpv4-sp-d16\libc.a(lib_a-reent.o)
                                                  c:/program files (x86)/atollic/truestudio for arm pro 3.2.0/armtools/bin/../lib/gcc/arm-atollic-eabi/4.6.2/../../../../arm-atollic-eabi/lib/thumb/softfp/armv7e-m/fpv4-sp-d16\libc.a(lib_a-reallocr.o)
                                                  c:/program files (x86)/atollic/truestudio for arm pro 3.2.0/armtools/bin/../lib/gcc/arm-atollic-eabi/4.6.2/../../../../arm-atollic-eabi/lib/thumb/softfp/armv7e-m/fpv4-sp-d16\libc.a(lib_a-svfiprintf.o)
                                                  c:/program files (x86)/atollic/truestudio for arm pro 3.2.0/armtools/bin/../lib/gcc/arm-atollic-eabi/4.6.2/../../../../arm-atollic-eabi/lib/thumb/softfp/armv7e-m/fpv4-sp-d16\libc.a(lib_a-mallocr.o)
                                                  c:/program files (x86)/atollic/truestudio for arm pro 3.2.0/armtools/bin/../lib/gcc/arm-atollic-eabi/4.6.2/../../../../arm-atollic-eabi/lib/thumb/softfp/armv7e-m/fpv4-sp-d16\libc.a(lib_a-malloc.o)
_fstat                                            c:/program files (x86)/atollic/truestudio for arm pro 3.2.0/armtools/bin/../lib/gcc/arm-atollic-eabi/4.6.2/../../../../arm-atollic-eabi/lib/thumb/softfp/armv7e-m/fpv4-sp-d16\libc.a(lib_a-syscalls.o)
_getpid                                           c:/program files (x86)/atollic/truestudio for arm pro 3.2.0/armtools/bin/../lib/gcc/arm-atollic-eabi/4.6.2/../../../../arm-atollic-eabi/lib/thumb/softfp/armv7e-m/fpv4-sp-d16\libc.a(lib_a-syscalls.o)
                                                  c:/program files (x86)/atollic/truestudio for arm pro 3.2.0/armtools/bin/../lib/gcc/arm-atollic-eabi/4.6.2/../../../../arm-atollic-eabi/lib/thumb/softfp/armv7e-m/fpv4-sp-d16\libc.a(lib_a-signalr.o)
_getpid_r                                         c:/program files (x86)/atollic/truestudio for arm pro 3.2.0/armtools/bin/../lib/gcc/arm-atollic-eabi/4.6.2/../../../../arm-atollic-eabi/lib/thumb/softfp/armv7e-m/fpv4-sp-d16\libc.a(lib_a-signalr.o)
                                                  c:/program files (x86)/atollic/truestudio for arm pro 3.2.0/armtools/bin/../lib/gcc/arm-atollic-eabi/4.6.2/../../../../arm-atollic-eabi/lib/thumb/softfp/armv7e-m/fpv4-sp-d16\libc.a(lib_a-signal.o)
_global_impure_ptr                                c:/program files (x86)/atollic/truestudio for arm pro 3.2.0/armtools/bin/../lib/gcc/arm-atollic-eabi/4.6.2/../../../../arm-atollic-eabi/lib/thumb/softfp/armv7e-m/fpv4-sp-d16\libc.a(lib_a-impure.o)
_impure_ptr                                       c:/program files (x86)/atollic/truestudio for arm pro 3.2.0/armtools/bin/../lib/gcc/arm-atollic-eabi/4.6.2/../../../../arm-atollic-eabi/lib/thumb/softfp/armv7e-m/fpv4-sp-d16\libc.a(lib_a-impure.o)
                                                  c:/program files (x86)/atollic/truestudio for arm pro 3.2.0/armtools/bin/../lib/gcc/arm-atollic-eabi/4.6.2/../../../../arm-atollic-eabi/lib/thumb/softfp/armv7e-m/fpv4-sp-d16\libc.a(lib_a-signal.o)
                                                  c:/program files (x86)/atollic/truestudio for arm pro 3.2.0/armtools/bin/../lib/gcc/arm-atollic-eabi/4.6.2/../../../../arm-atollic-eabi/lib/thumb/softfp/armv7e-m/fpv4-sp-d16\libc.a(lib_a-reent.o)
                                                  c:/program files (x86)/atollic/truestudio for arm pro 3.2.0/armtools/bin/../lib/gcc/arm-atollic-eabi/4.6.2/../../../../arm-atollic-eabi/lib/thumb/softfp/armv7e-m/fpv4-sp-d16\libc.a(lib_a-malloc.o)
                                                  c:/program files (x86)/atollic/truestudio for arm pro 3.2.0/armtools/bin/../lib/gcc/arm-atollic-eabi/4.6.2/../../../../arm-atollic-eabi/lib/thumb/softfp/armv7e-m/fpv4-sp-d16\libc.a(lib_a-locale.o)
                                                  c:/program files (x86)/atollic/truestudio for arm pro 3.2.0/armtools/bin/../lib/gcc/arm-atollic-eabi/4.6.2/../../../../arm-atollic-eabi/lib/thumb/softfp/armv7e-m/fpv4-sp-d16\libc.a(lib_a-vsnprintf.o)
_init                                             c:/program files (x86)/atollic/truestudio for arm pro 3.2.0/armtools/bin/../lib/gcc/arm-atollic-eabi/4.6.2/thumb/softfp/armv7e-m/fpv4-sp-d16/crti.o
                                                  c:/program files (x86)/atollic/truestudio for arm pro 3.2.0/armtools/bin/../lib/gcc/arm-atollic-eabi/4.6.2/../../../../arm-atollic-eabi/lib/thumb/softfp/armv7e-m/fpv4-sp-d16\libc.a(lib_a-init.o)
_init_signal                                      c:/program files (x86)/atollic/truestudio for arm pro 3.2.0/armtools/bin/../lib/gcc/arm-atollic-eabi/4.6.2/../../../../arm-atollic-eabi/lib/thumb/softfp/armv7e-m/fpv4-sp-d16\libc.a(lib_a-signal.o)
_init_signal_r                                    c:/program files (x86)/atollic/truestudio for arm pro 3.2.0/armtools/bin/../lib/gcc/arm-atollic-eabi/4.6.2/../../../../arm-atollic-eabi/lib/thumb/softfp/armv7e-m/fpv4-sp-d16\libc.a(lib_a-signal.o)
_isatty                                           c:/program files (x86)/atollic/truestudio for arm pro 3.2.0/armtools/bin/../lib/gcc/arm-atollic-eabi/4.6.2/../../../../arm-atollic-eabi/lib/thumb/softfp/armv7e-m/fpv4-sp-d16\libc.a(lib_a-syscalls.o)
_kill                                             c:/program files (x86)/atollic/truestudio for arm pro 3.2.0/armtools/bin/../lib/gcc/arm-atollic-eabi/4.6.2/../../../../arm-atollic-eabi/lib/thumb/softfp/armv7e-m/fpv4-sp-d16\libc.a(lib_a-syscalls.o)
                                                  c:/program files (x86)/atollic/truestudio for arm pro 3.2.0/armtools/bin/../lib/gcc/arm-atollic-eabi/4.6.2/../../../../arm-atollic-eabi/lib/thumb/softfp/armv7e-m/fpv4-sp-d16\libc.a(lib_a-signalr.o)
_kill_r                                           c:/program files (x86)/atollic/truestudio for arm pro 3.2.0/armtools/bin/../lib/gcc/arm-atollic-eabi/4.6.2/../../../../arm-atollic-eabi/lib/thumb/softfp/armv7e-m/fpv4-sp-d16\libc.a(lib_a-signalr.o)
                                                  c:/program files (x86)/atollic/truestudio for arm pro 3.2.0/armtools/bin/../lib/gcc/arm-atollic-eabi/4.6.2/../../../../arm-atollic-eabi/lib/thumb/softfp/armv7e-m/fpv4-sp-d16\libc.a(lib_a-signal.o)
_link                                             c:/program files (x86)/atollic/truestudio for arm pro 3.2.0/armtools/bin/../lib/gcc/arm-atollic-eabi/4.6.2/../../../../arm-atollic-eabi/lib/thumb/softfp/armv7e-m/fpv4-sp-d16\libc.a(lib_a-syscalls.o)
_localeconv_r                                     c:/program files (x86)/atollic/truestudio for arm pro 3.2.0/armtools/bin/../lib/gcc/arm-atollic-eabi/4.6.2/../../../../arm-atollic-eabi/lib/thumb/softfp/armv7e-m/fpv4-sp-d16\libc.a(lib_a-locale.o)
                                                  c:/program files (x86)/atollic/truestudio for arm pro 3.2.0/armtools/bin/../lib/gcc/arm-atollic-eabi/4.6.2/../../../../arm-atollic-eabi/lib/thumb/softfp/armv7e-m/fpv4-sp-d16\libc.a(lib_a-svfprintf.o)
_lseek                                            c:/program files (x86)/atollic/truestudio for arm pro 3.2.0/armtools/bin/../lib/gcc/arm-atollic-eabi/4.6.2/../../../../arm-atollic-eabi/lib/thumb/softfp/armv7e-m/fpv4-sp-d16\libc.a(lib_a-syscalls.o)
_malloc_r                                         c:/program files (x86)/atollic/truestudio for arm pro 3.2.0/armtools/bin/../lib/gcc/arm-atollic-eabi/4.6.2/../../../../arm-atollic-eabi/lib/thumb/softfp/armv7e-m/fpv4-sp-d16\libc.a(lib_a-mallocr.o)
                                                  c:/program files (x86)/atollic/truestudio for arm pro 3.2.0/armtools/bin/../lib/gcc/arm-atollic-eabi/4.6.2/../../../../arm-atollic-eabi/lib/thumb/softfp/armv7e-m/fpv4-sp-d16\libc.a(lib_a-signal.o)
                                                  c:/program files (x86)/atollic/truestudio for arm pro 3.2.0/armtools/bin/../lib/gcc/arm-atollic-eabi/4.6.2/../../../../arm-atollic-eabi/lib/thumb/softfp/armv7e-m/fpv4-sp-d16\libc.a(lib_a-reallocr.o)
                                                  c:/program files (x86)/atollic/truestudio for arm pro 3.2.0/armtools/bin/../lib/gcc/arm-atollic-eabi/4.6.2/../../../../arm-atollic-eabi/lib/thumb/softfp/armv7e-m/fpv4-sp-d16\libc.a(lib_a-callocr.o)
                                                  c:/program files (x86)/atollic/truestudio for arm pro 3.2.0/armtools/bin/../lib/gcc/arm-atollic-eabi/4.6.2/../../../../arm-atollic-eabi/lib/thumb/softfp/armv7e-m/fpv4-sp-d16\libc.a(lib_a-svfiprintf.o)
                                                  c:/program files (x86)/atollic/truestudio for arm pro 3.2.0/armtools/bin/../lib/gcc/arm-atollic-eabi/4.6.2/../../../../arm-atollic-eabi/lib/thumb/softfp/armv7e-m/fpv4-sp-d16\libc.a(lib_a-malloc.o)
                                                  c:/program files (x86)/atollic/truestudio for arm pro 3.2.0/armtools/bin/../lib/gcc/arm-atollic-eabi/4.6.2/../../../../arm-atollic-eabi/lib/thumb/softfp/armv7e-m/fpv4-sp-d16\libc.a(lib_a-svfprintf.o)
_malloc_trim_r                                    c:/program files (x86)/atollic/truestudio for arm pro 3.2.0/armtools/bin/../lib/gcc/arm-atollic-eabi/4.6.2/../../../../arm-atollic-eabi/lib/thumb/softfp/armv7e-m/fpv4-sp-d16\libc.a(lib_a-freer.o)
_mprec_log10                                      c:/program files (x86)/atollic/truestudio for arm pro 3.2.0/armtools/bin/../lib/gcc/arm-atollic-eabi/4.6.2/../../../../arm-atollic-eabi/lib/thumb/softfp/armv7e-m/fpv4-sp-d16\libc.a(lib_a-mprec.o)
_open                                             c:/program files (x86)/atollic/truestudio for arm pro 3.2.0/armtools/bin/../lib/gcc/arm-atollic-eabi/4.6.2/../../../../arm-atollic-eabi/lib/thumb/softfp/armv7e-m/fpv4-sp-d16\libc.a(lib_a-syscalls.o)
_raise_r                                          c:/program files (x86)/atollic/truestudio for arm pro 3.2.0/armtools/bin/../lib/gcc/arm-atollic-eabi/4.6.2/../../../../arm-atollic-eabi/lib/thumb/softfp/armv7e-m/fpv4-sp-d16\libc.a(lib_a-signal.o)
_read                                             c:/program files (x86)/atollic/truestudio for arm pro 3.2.0/armtools/bin/../lib/gcc/arm-atollic-eabi/4.6.2/../../../../arm-atollic-eabi/lib/thumb/softfp/armv7e-m/fpv4-sp-d16\libc.a(lib_a-syscalls.o)
_realloc_r                                        c:/program files (x86)/atollic/truestudio for arm pro 3.2.0/armtools/bin/../lib/gcc/arm-atollic-eabi/4.6.2/../../../../arm-atollic-eabi/lib/thumb/softfp/armv7e-m/fpv4-sp-d16\libc.a(lib_a-reallocr.o)
                                                  c:/program files (x86)/atollic/truestudio for arm pro 3.2.0/armtools/bin/../lib/gcc/arm-atollic-eabi/4.6.2/../../../../arm-atollic-eabi/lib/thumb/softfp/armv7e-m/fpv4-sp-d16\libc.a(lib_a-svfiprintf.o)
_reclaim_reent                                    c:/program files (x86)/atollic/truestudio for arm pro 3.2.0/armtools/bin/../lib/gcc/arm-atollic-eabi/4.6.2/../../../../arm-atollic-eabi/lib/thumb/softfp/armv7e-m/fpv4-sp-d16\libc.a(lib_a-reent.o)
_sbrk                                             c:/program files (x86)/atollic/truestudio for arm pro 3.2.0/armtools/bin/../lib/gcc/arm-atollic-eabi/4.6.2/../../../../arm-atollic-eabi/lib/thumb/softfp/armv7e-m/fpv4-sp-d16\libc.a(lib_a-syscalls.o)
                                                  c:/program files (x86)/atollic/truestudio for arm pro 3.2.0/armtools/bin/../lib/gcc/arm-atollic-eabi/4.6.2/../../../../arm-atollic-eabi/lib/thumb/softfp/armv7e-m/fpv4-sp-d16\libc.a(lib_a-sbrkr.o)
_sbrk_r                                           c:/program files (x86)/atollic/truestudio for arm pro 3.2.0/armtools/bin/../lib/gcc/arm-atollic-eabi/4.6.2/../../../../arm-atollic-eabi/lib/thumb/softfp/armv7e-m/fpv4-sp-d16\libc.a(lib_a-sbrkr.o)
                                                  c:/program files (x86)/atollic/truestudio for arm pro 3.2.0/armtools/bin/../lib/gcc/arm-atollic-eabi/4.6.2/../../../../arm-atollic-eabi/lib/thumb/softfp/armv7e-m/fpv4-sp-d16\libc.a(lib_a-freer.o)
                                                  c:/program files (x86)/atollic/truestudio for arm pro 3.2.0/armtools/bin/../lib/gcc/arm-atollic-eabi/4.6.2/../../../../arm-atollic-eabi/lib/thumb/softfp/armv7e-m/fpv4-sp-d16\libc.a(lib_a-mallocr.o)
_sbss                                             BSP\cstartup.o
_sdata                                            BSP\cstartup.o
_setlocale_r                                      c:/program files (x86)/atollic/truestudio for arm pro 3.2.0/armtools/bin/../lib/gcc/arm-atollic-eabi/4.6.2/../../../../arm-atollic-eabi/lib/thumb/softfp/armv7e-m/fpv4-sp-d16\libc.a(lib_a-locale.o)
_sidata                                           BSP\cstartup.o
_signal_r                                         c:/program files (x86)/atollic/truestudio for arm pro 3.2.0/armtools/bin/../lib/gcc/arm-atollic-eabi/4.6.2/../../../../arm-atollic-eabi/lib/thumb/softfp/armv7e-m/fpv4-sp-d16\libc.a(lib_a-signal.o)
_stat                                             c:/program files (x86)/atollic/truestudio for arm pro 3.2.0/armtools/bin/../lib/gcc/arm-atollic-eabi/4.6.2/../../../../arm-atollic-eabi/lib/thumb/softfp/armv7e-m/fpv4-sp-d16\libc.a(lib_a-syscalls.o)
_svfiprintf_r                                     c:/program files (x86)/atollic/truestudio for arm pro 3.2.0/armtools/bin/../lib/gcc/arm-atollic-eabi/4.6.2/../../../../arm-atollic-eabi/lib/thumb/softfp/armv7e-m/fpv4-sp-d16\libc.a(lib_a-svfiprintf.o)
_svfprintf_r                                      c:/program files (x86)/atollic/truestudio for arm pro 3.2.0/armtools/bin/../lib/gcc/arm-atollic-eabi/4.6.2/../../../../arm-atollic-eabi/lib/thumb/softfp/armv7e-m/fpv4-sp-d16\libc.a(lib_a-svfprintf.o)
                                                  c:/program files (x86)/atollic/truestudio for arm pro 3.2.0/armtools/bin/../lib/gcc/arm-atollic-eabi/4.6.2/../../../../arm-atollic-eabi/lib/thumb/softfp/armv7e-m/fpv4-sp-d16\libc.a(lib_a-vsnprintf.o)
_times                                            c:/program files (x86)/atollic/truestudio for arm pro 3.2.0/armtools/bin/../lib/gcc/arm-atollic-eabi/4.6.2/../../../../arm-atollic-eabi/lib/thumb/softfp/armv7e-m/fpv4-sp-d16\libc.a(lib_a-syscalls.o)
_unlink                                           c:/program files (x86)/atollic/truestudio for arm pro 3.2.0/armtools/bin/../lib/gcc/arm-atollic-eabi/4.6.2/../../../../arm-atollic-eabi/lib/thumb/softfp/armv7e-m/fpv4-sp-d16\libc.a(lib_a-syscalls.o)
_vsnprintf_r                                      c:/program files (x86)/atollic/truestudio for arm pro 3.2.0/armtools/bin/../lib/gcc/arm-atollic-eabi/4.6.2/../../../../arm-atollic-eabi/lib/thumb/softfp/armv7e-m/fpv4-sp-d16\libc.a(lib_a-vsnprintf.o)
_wait                                             c:/program files (x86)/atollic/truestudio for arm pro 3.2.0/armtools/bin/../lib/gcc/arm-atollic-eabi/4.6.2/../../../../arm-atollic-eabi/lib/thumb/softfp/armv7e-m/fpv4-sp-d16\libc.a(lib_a-syscalls.o)
_wrapup_reent                                     c:/program files (x86)/atollic/truestudio for arm pro 3.2.0/armtools/bin/../lib/gcc/arm-atollic-eabi/4.6.2/../../../../arm-atollic-eabi/lib/thumb/softfp/armv7e-m/fpv4-sp-d16\libc.a(lib_a-reent.o)
_write                                            c:/program files (x86)/atollic/truestudio for arm pro 3.2.0/armtools/bin/../lib/gcc/arm-atollic-eabi/4.6.2/../../../../arm-atollic-eabi/lib/thumb/softfp/armv7e-m/fpv4-sp-d16\libc.a(lib_a-syscalls.o)
abort                                             c:/program files (x86)/atollic/truestudio for arm pro 3.2.0/armtools/bin/../lib/gcc/arm-atollic-eabi/4.6.2/../../../../arm-atollic-eabi/lib/thumb/softfp/armv7e-m/fpv4-sp-d16\libc.a(lib_a-abort.o)
                                                  c:/program files (x86)/atollic/truestudio for arm pro 3.2.0/armtools/bin/../lib/gcc/arm-atollic-eabi/4.6.2/thumb/softfp/armv7e-m/fpv4-sp-d16\libgcc.a(pr-support.o)
                                                  c:/program files (x86)/atollic/truestudio for arm pro 3.2.0/armtools/bin/../lib/gcc/arm-atollic-eabi/4.6.2/thumb/softfp/armv7e-m/fpv4-sp-d16\libgcc.a(unwind-arm.o)
cleanup_glue                                      c:/program files (x86)/atollic/truestudio for arm pro 3.2.0/armtools/bin/../lib/gcc/arm-atollic-eabi/4.6.2/../../../../arm-atollic-eabi/lib/thumb/softfp/armv7e-m/fpv4-sp-d16\libc.a(lib_a-reent.o)
end                                               c:/program files (x86)/atollic/truestudio for arm pro 3.2.0/armtools/bin/../lib/gcc/arm-atollic-eabi/4.6.2/../../../../arm-atollic-eabi/lib/thumb/softfp/armv7e-m/fpv4-sp-d16\libc.a(lib_a-syscalls.o)
environ                                           c:/program files (x86)/atollic/truestudio for arm pro 3.2.0/armtools/bin/../lib/gcc/arm-atollic-eabi/4.6.2/../../../../arm-atollic-eabi/lib/thumb/softfp/armv7e-m/fpv4-sp-d16\libc.a(lib_a-syscalls.o)
errno                                             c:/program files (x86)/atollic/truestudio for arm pro 3.2.0/armtools/bin/../lib/gcc/arm-atollic-eabi/4.6.2/../../../../arm-atollic-eabi/lib/thumb/softfp/armv7e-m/fpv4-sp-d16\libc.a(lib_a-signalr.o)
                                                  c:/program files (x86)/atollic/truestudio for arm pro 3.2.0/armtools/bin/../lib/gcc/arm-atollic-eabi/4.6.2/../../../../arm-atollic-eabi/lib/thumb/softfp/armv7e-m/fpv4-sp-d16\libc.a(lib_a-reent.o)
                                                  c:/program files (x86)/atollic/truestudio for arm pro 3.2.0/armtools/bin/../lib/gcc/arm-atollic-eabi/4.6.2/../../../../arm-atollic-eabi/lib/thumb/softfp/armv7e-m/fpv4-sp-d16\libc.a(lib_a-syscalls.o)
                                                  c:/program files (x86)/atollic/truestudio for arm pro 3.2.0/armtools/bin/../lib/gcc/arm-atollic-eabi/4.6.2/../../../../arm-atollic-eabi/lib/thumb/softfp/armv7e-m/fpv4-sp-d16\libc.a(lib_a-sbrkr.o)
free                                              c:/program files (x86)/atollic/truestudio for arm pro 3.2.0/armtools/bin/../lib/gcc/arm-atollic-eabi/4.6.2/../../../../arm-atollic-eabi/lib/thumb/softfp/armv7e-m/fpv4-sp-d16\libc.a(lib_a-malloc.o)
g_pfnVectors                                      BSP\cstartup.o
initialise_monitor_handles                        c:/program files (x86)/atollic/truestudio for arm pro 3.2.0/armtools/bin/../lib/gcc/arm-atollic-eabi/4.6.2/../../../../arm-atollic-eabi/lib/thumb/softfp/armv7e-m/fpv4-sp-d16\libc.a(lib_a-syscalls.o)
localeconv                                        c:/program files (x86)/atollic/truestudio for arm pro 3.2.0/armtools/bin/../lib/gcc/arm-atollic-eabi/4.6.2/../../../../arm-atollic-eabi/lib/thumb/softfp/armv7e-m/fpv4-sp-d16\libc.a(lib_a-locale.o)
main                                              APP\app.o
                                                  BSP\cstartup.o
malloc                                            c:/program files (x86)/atollic/truestudio for arm pro 3.2.0/armtools/bin/../lib/gcc/arm-atollic-eabi/4.6.2/../../../../arm-atollic-eabi/lib/thumb/softfp/armv7e-m/fpv4-sp-d16\libc.a(lib_a-malloc.o)
                                                  c:/program files (x86)/atollic/truestudio for arm pro 3.2.0/armtools/bin/../lib/gcc/arm-atollic-eabi/4.6.2/../../../../arm-atollic-eabi/lib/thumb/softfp/armv7e-m/fpv4-sp-d16\libc.a(lib_a-mprec.o)
                                                  c:/program files (x86)/atollic/truestudio for arm pro 3.2.0/armtools/bin/../lib/gcc/arm-atollic-eabi/4.6.2/../../../../arm-atollic-eabi/lib/thumb/softfp/armv7e-m/fpv4-sp-d16\libc.a(lib_a-dtoa.o)
malloc_getpagesize_P                              c:/program files (x86)/atollic/truestudio for arm pro 3.2.0/armtools/bin/../lib/gcc/arm-atollic-eabi/4.6.2/../../../../arm-atollic-eabi/lib/thumb/softfp/armv7e-m/fpv4-sp-d16\libc.a(lib_a-freer.o)
                                                  c:/program files (x86)/atollic/truestudio for arm pro 3.2.0/armtools/bin/../lib/gcc/arm-atollic-eabi/4.6.2/../../../../arm-atollic-eabi/lib/thumb/softfp/armv7e-m/fpv4-sp-d16\libc.a(lib_a-mallocr.o)
memchr                                            c:/program files (x86)/atollic/truestudio for arm pro 3.2.0/armtools/bin/../lib/gcc/arm-atollic-eabi/4.6.2/../../../../arm-atollic-eabi/lib/thumb/softfp/armv7e-m/fpv4-sp-d16\libc.a(lib_a-memchr.o)
                                                  c:/program files (x86)/atollic/truestudio for arm pro 3.2.0/armtools/bin/../lib/gcc/arm-atollic-eabi/4.6.2/../../../../arm-atollic-eabi/lib/thumb/softfp/armv7e-m/fpv4-sp-d16\libc.a(lib_a-svfiprintf.o)
                                                  c:/program files (x86)/atollic/truestudio for arm pro 3.2.0/armtools/bin/../lib/gcc/arm-atollic-eabi/4.6.2/../../../../arm-atollic-eabi/lib/thumb/softfp/armv7e-m/fpv4-sp-d16\libc.a(lib_a-svfprintf.o)
memcpy                                            c:/program files (x86)/atollic/truestudio for arm pro 3.2.0/armtools/bin/../lib/gcc/arm-atollic-eabi/4.6.2/../../../../arm-atollic-eabi/lib/thumb/softfp/armv7e-m/fpv4-sp-d16\libc.a(lib_a-memcpy.o)
                                                  c:/program files (x86)/atollic/truestudio for arm pro 3.2.0/armtools/bin/../lib/gcc/arm-atollic-eabi/4.6.2/thumb/softfp/armv7e-m/fpv4-sp-d16\libgcc.a(unwind-arm.o)
                                                  c:/program files (x86)/atollic/truestudio for arm pro 3.2.0/armtools/bin/../lib/gcc/arm-atollic-eabi/4.6.2/../../../../arm-atollic-eabi/lib/thumb/softfp/armv7e-m/fpv4-sp-d16\libc.a(lib_a-svfiprintf.o)
                                                  c:/program files (x86)/atollic/truestudio for arm pro 3.2.0/armtools/bin/../lib/gcc/arm-atollic-eabi/4.6.2/../../../../arm-atollic-eabi/lib/thumb/softfp/armv7e-m/fpv4-sp-d16\libc.a(lib_a-mprec.o)
                                                  c:/program files (x86)/atollic/truestudio for arm pro 3.2.0/armtools/bin/../lib/gcc/arm-atollic-eabi/4.6.2/../../../../arm-atollic-eabi/lib/thumb/softfp/armv7e-m/fpv4-sp-d16\libc.a(lib_a-dtoa.o)
memmove                                           c:/program files (x86)/atollic/truestudio for arm pro 3.2.0/armtools/bin/../lib/gcc/arm-atollic-eabi/4.6.2/../../../../arm-atollic-eabi/lib/thumb/softfp/armv7e-m/fpv4-sp-d16\libc.a(lib_a-memmove.o)
                                                  c:/program files (x86)/atollic/truestudio for arm pro 3.2.0/armtools/bin/../lib/gcc/arm-atollic-eabi/4.6.2/../../../../arm-atollic-eabi/lib/thumb/softfp/armv7e-m/fpv4-sp-d16\libc.a(lib_a-reallocr.o)
                                                  c:/program files (x86)/atollic/truestudio for arm pro 3.2.0/armtools/bin/../lib/gcc/arm-atollic-eabi/4.6.2/../../../../arm-atollic-eabi/lib/thumb/softfp/armv7e-m/fpv4-sp-d16\libc.a(lib_a-svfiprintf.o)
memset                                            c:/program files (x86)/atollic/truestudio for arm pro 3.2.0/armtools/bin/../lib/gcc/arm-atollic-eabi/4.6.2/../../../../arm-atollic-eabi/lib/thumb/softfp/armv7e-m/fpv4-sp-d16\libc.a(lib_a-memset.o)
                                                  c:/program files (x86)/atollic/truestudio for arm pro 3.2.0/armtools/bin/../lib/gcc/arm-atollic-eabi/4.6.2/../../../../arm-atollic-eabi/lib/thumb/softfp/armv7e-m/fpv4-sp-d16\libc.a(lib_a-callocr.o)
raise                                             c:/program files (x86)/atollic/truestudio for arm pro 3.2.0/armtools/bin/../lib/gcc/arm-atollic-eabi/4.6.2/../../../../arm-atollic-eabi/lib/thumb/softfp/armv7e-m/fpv4-sp-d16\libc.a(lib_a-signal.o)
                                                  c:/program files (x86)/atollic/truestudio for arm pro 3.2.0/armtools/bin/../lib/gcc/arm-atollic-eabi/4.6.2/../../../../arm-atollic-eabi/lib/thumb/softfp/armv7e-m/fpv4-sp-d16\libc.a(lib_a-abort.o)
restore_core_regs                                 c:/program files (x86)/atollic/truestudio for arm pro 3.2.0/armtools/bin/../lib/gcc/arm-atollic-eabi/4.6.2/thumb/softfp/armv7e-m/fpv4-sp-d16\libgcc.a(libunwind.o)
                                                  c:/program files (x86)/atollic/truestudio for arm pro 3.2.0/armtools/bin/../lib/gcc/arm-atollic-eabi/4.6.2/thumb/softfp/armv7e-m/fpv4-sp-d16\libgcc.a(unwind-arm.o)
setlocale                                         c:/program files (x86)/atollic/truestudio for arm pro 3.2.0/armtools/bin/../lib/gcc/arm-atollic-eabi/4.6.2/../../../../arm-atollic-eabi/lib/thumb/softfp/armv7e-m/fpv4-sp-d16\libc.a(lib_a-locale.o)
signal                                            c:/program files (x86)/atollic/truestudio for arm pro 3.2.0/armtools/bin/../lib/gcc/arm-atollic-eabi/4.6.2/../../../../arm-atollic-eabi/lib/thumb/softfp/armv7e-m/fpv4-sp-d16\libc.a(lib_a-signal.o)
strcmp                                            c:/program files (x86)/atollic/truestudio for arm pro 3.2.0/armtools/bin/../lib/gcc/arm-atollic-eabi/4.6.2/../../../../arm-atollic-eabi/lib/thumb/softfp/armv7e-m/fpv4-sp-d16\libc.a(lib_a-strcmp.o)
                                                  c:/program files (x86)/atollic/truestudio for arm pro 3.2.0/armtools/bin/../lib/gcc/arm-atollic-eabi/4.6.2/../../../../arm-atollic-eabi/lib/thumb/softfp/armv7e-m/fpv4-sp-d16\libc.a(lib_a-locale.o)
strlen                                            c:/program files (x86)/atollic/truestudio for arm pro 3.2.0/armtools/bin/../lib/gcc/arm-atollic-eabi/4.6.2/../../../../arm-atollic-eabi/lib/thumb/softfp/armv7e-m/fpv4-sp-d16\libc.a(lib_a-strlen.o)
                                                  c:/program files (x86)/atollic/truestudio for arm pro 3.2.0/armtools/bin/../lib/gcc/arm-atollic-eabi/4.6.2/../../../../arm-atollic-eabi/lib/thumb/softfp/armv7e-m/fpv4-sp-d16\libc.a(lib_a-svfiprintf.o)
                                                  c:/program files (x86)/atollic/truestudio for arm pro 3.2.0/armtools/bin/../lib/gcc/arm-atollic-eabi/4.6.2/../../../../arm-atollic-eabi/lib/thumb/softfp/armv7e-m/fpv4-sp-d16\libc.a(lib_a-svfprintf.o)
vsnprintf                                         c:/program files (x86)/atollic/truestudio for arm pro 3.2.0/armtools/bin/../lib/gcc/arm-atollic-eabi/4.6.2/../../../../arm-atollic-eabi/lib/thumb/softfp/armv7e-m/fpv4-sp-d16\libc.a(lib_a-vsnprintf.o)
                                                  BSP\bsp_ser.o
